ARM GAS  C:\Users\LJH\AppData\Local\Temp\ccdyqIDU.s 			page 1


   1              		.cpu cortex-m3
   2              		.arch armv7-m
   3              		.fpu softvfp
   4              		.eabi_attribute 20, 1
   5              		.eabi_attribute 21, 1
   6              		.eabi_attribute 23, 3
   7              		.eabi_attribute 24, 1
   8              		.eabi_attribute 25, 1
   9              		.eabi_attribute 26, 1
  10              		.eabi_attribute 30, 1
  11              		.eabi_attribute 34, 1
  12              		.eabi_attribute 18, 4
  13              		.file	"cmsis_os.c"
  14              		.text
  15              	.Ltext0:
  16              		.cfi_sections	.debug_frame
  17              		.section	.text.makeFreeRtosPriority,"ax",%progbits
  18              		.align	1
  19              		.syntax unified
  20              		.thumb
  21              		.thumb_func
  23              	makeFreeRtosPriority:
  24              	.LVL0:
  25              	.LFB49:
  26              		.file 1 "Middlewares/Third_Party/FreeRTOS/Source/CMSIS_RTOS/cmsis_os.c"
   1:Middlewares/Third_Party/FreeRTOS/Source/CMSIS_RTOS/cmsis_os.c **** /* ----------------------------------------------------------------------
   2:Middlewares/Third_Party/FreeRTOS/Source/CMSIS_RTOS/cmsis_os.c ****  * $Date:        5. February 2013
   3:Middlewares/Third_Party/FreeRTOS/Source/CMSIS_RTOS/cmsis_os.c ****  * $Revision:    V1.02
   4:Middlewares/Third_Party/FreeRTOS/Source/CMSIS_RTOS/cmsis_os.c ****  *
   5:Middlewares/Third_Party/FreeRTOS/Source/CMSIS_RTOS/cmsis_os.c ****  * Project:      CMSIS-RTOS API
   6:Middlewares/Third_Party/FreeRTOS/Source/CMSIS_RTOS/cmsis_os.c ****  * Title:        cmsis_os.c
   7:Middlewares/Third_Party/FreeRTOS/Source/CMSIS_RTOS/cmsis_os.c ****  *
   8:Middlewares/Third_Party/FreeRTOS/Source/CMSIS_RTOS/cmsis_os.c ****  * Version 0.02
   9:Middlewares/Third_Party/FreeRTOS/Source/CMSIS_RTOS/cmsis_os.c ****  *    Initial Proposal Phase
  10:Middlewares/Third_Party/FreeRTOS/Source/CMSIS_RTOS/cmsis_os.c ****  * Version 0.03
  11:Middlewares/Third_Party/FreeRTOS/Source/CMSIS_RTOS/cmsis_os.c ****  *    osKernelStart added, optional feature: main started as thread
  12:Middlewares/Third_Party/FreeRTOS/Source/CMSIS_RTOS/cmsis_os.c ****  *    osSemaphores have standard behavior
  13:Middlewares/Third_Party/FreeRTOS/Source/CMSIS_RTOS/cmsis_os.c ****  *    osTimerCreate does not start the timer, added osTimerStart
  14:Middlewares/Third_Party/FreeRTOS/Source/CMSIS_RTOS/cmsis_os.c ****  *    osThreadPass is renamed to osThreadYield
  15:Middlewares/Third_Party/FreeRTOS/Source/CMSIS_RTOS/cmsis_os.c ****  * Version 1.01
  16:Middlewares/Third_Party/FreeRTOS/Source/CMSIS_RTOS/cmsis_os.c ****  *    Support for C++ interface
  17:Middlewares/Third_Party/FreeRTOS/Source/CMSIS_RTOS/cmsis_os.c ****  *     - const attribute removed from the osXxxxDef_t typedef's
  18:Middlewares/Third_Party/FreeRTOS/Source/CMSIS_RTOS/cmsis_os.c ****  *     - const attribute added to the osXxxxDef macros
  19:Middlewares/Third_Party/FreeRTOS/Source/CMSIS_RTOS/cmsis_os.c ****  *    Added: osTimerDelete, osMutexDelete, osSemaphoreDelete
  20:Middlewares/Third_Party/FreeRTOS/Source/CMSIS_RTOS/cmsis_os.c ****  *    Added: osKernelInitialize
  21:Middlewares/Third_Party/FreeRTOS/Source/CMSIS_RTOS/cmsis_os.c ****  * Version 1.02
  22:Middlewares/Third_Party/FreeRTOS/Source/CMSIS_RTOS/cmsis_os.c ****  *    Control functions for short timeouts in microsecond resolution:
  23:Middlewares/Third_Party/FreeRTOS/Source/CMSIS_RTOS/cmsis_os.c ****  *    Added: osKernelSysTick, osKernelSysTickFrequency, osKernelSysTickMicroSec
  24:Middlewares/Third_Party/FreeRTOS/Source/CMSIS_RTOS/cmsis_os.c ****  *    Removed: osSignalGet 
  25:Middlewares/Third_Party/FreeRTOS/Source/CMSIS_RTOS/cmsis_os.c ****  *    
  26:Middlewares/Third_Party/FreeRTOS/Source/CMSIS_RTOS/cmsis_os.c ****  *  
  27:Middlewares/Third_Party/FreeRTOS/Source/CMSIS_RTOS/cmsis_os.c ****  *----------------------------------------------------------------------------
  28:Middlewares/Third_Party/FreeRTOS/Source/CMSIS_RTOS/cmsis_os.c ****  *
  29:Middlewares/Third_Party/FreeRTOS/Source/CMSIS_RTOS/cmsis_os.c ****  * Portions Copyright © 2016 STMicroelectronics International N.V. All rights reserved.
  30:Middlewares/Third_Party/FreeRTOS/Source/CMSIS_RTOS/cmsis_os.c ****  * Portions Copyright (c) 2013 ARM LIMITED
  31:Middlewares/Third_Party/FreeRTOS/Source/CMSIS_RTOS/cmsis_os.c ****  * All rights reserved.
  32:Middlewares/Third_Party/FreeRTOS/Source/CMSIS_RTOS/cmsis_os.c ****  * Redistribution and use in source and binary forms, with or without
ARM GAS  C:\Users\LJH\AppData\Local\Temp\ccdyqIDU.s 			page 2


  33:Middlewares/Third_Party/FreeRTOS/Source/CMSIS_RTOS/cmsis_os.c ****  * modification, are permitted provided that the following conditions are met:
  34:Middlewares/Third_Party/FreeRTOS/Source/CMSIS_RTOS/cmsis_os.c ****  *  - Redistributions of source code must retain the above copyright
  35:Middlewares/Third_Party/FreeRTOS/Source/CMSIS_RTOS/cmsis_os.c ****  *    notice, this list of conditions and the following disclaimer.
  36:Middlewares/Third_Party/FreeRTOS/Source/CMSIS_RTOS/cmsis_os.c ****  *  - Redistributions in binary form must reproduce the above copyright
  37:Middlewares/Third_Party/FreeRTOS/Source/CMSIS_RTOS/cmsis_os.c ****  *    notice, this list of conditions and the following disclaimer in the
  38:Middlewares/Third_Party/FreeRTOS/Source/CMSIS_RTOS/cmsis_os.c ****  *    documentation and/or other materials provided with the distribution.
  39:Middlewares/Third_Party/FreeRTOS/Source/CMSIS_RTOS/cmsis_os.c ****  *  - Neither the name of ARM  nor the names of its contributors may be used
  40:Middlewares/Third_Party/FreeRTOS/Source/CMSIS_RTOS/cmsis_os.c ****  *    to endorse or promote products derived from this software without
  41:Middlewares/Third_Party/FreeRTOS/Source/CMSIS_RTOS/cmsis_os.c ****  *    specific prior written permission.
  42:Middlewares/Third_Party/FreeRTOS/Source/CMSIS_RTOS/cmsis_os.c ****  *
  43:Middlewares/Third_Party/FreeRTOS/Source/CMSIS_RTOS/cmsis_os.c ****  * THIS SOFTWARE IS PROVIDED BY THE COPYRIGHT HOLDERS AND CONTRIBUTORS "AS IS"
  44:Middlewares/Third_Party/FreeRTOS/Source/CMSIS_RTOS/cmsis_os.c ****  * AND ANY EXPRESS OR IMPLIED WARRANTIES, INCLUDING, BUT NOT LIMITED TO, THE
  45:Middlewares/Third_Party/FreeRTOS/Source/CMSIS_RTOS/cmsis_os.c ****  * IMPLIED WARRANTIES OF MERCHANTABILITY AND FITNESS FOR A PARTICULAR PURPOSE
  46:Middlewares/Third_Party/FreeRTOS/Source/CMSIS_RTOS/cmsis_os.c ****  * ARE DISCLAIMED. IN NO EVENT SHALL COPYRIGHT HOLDERS AND CONTRIBUTORS BE
  47:Middlewares/Third_Party/FreeRTOS/Source/CMSIS_RTOS/cmsis_os.c ****  * LIABLE FOR ANY DIRECT, INDIRECT, INCIDENTAL, SPECIAL, EXEMPLARY, OR
  48:Middlewares/Third_Party/FreeRTOS/Source/CMSIS_RTOS/cmsis_os.c ****  * CONSEQUENTIAL DAMAGES (INCLUDING, BUT NOT LIMITED TO, PROCUREMENT OF
  49:Middlewares/Third_Party/FreeRTOS/Source/CMSIS_RTOS/cmsis_os.c ****  * SUBSTITUTE GOODS OR SERVICES; LOSS OF USE, DATA, OR PROFITS; OR BUSINESS
  50:Middlewares/Third_Party/FreeRTOS/Source/CMSIS_RTOS/cmsis_os.c ****  * INTERRUPTION) HOWEVER CAUSED AND ON ANY THEORY OF LIABILITY, WHETHER IN
  51:Middlewares/Third_Party/FreeRTOS/Source/CMSIS_RTOS/cmsis_os.c ****  * CONTRACT, STRICT LIABILITY, OR TORT (INCLUDING NEGLIGENCE OR OTHERWISE)
  52:Middlewares/Third_Party/FreeRTOS/Source/CMSIS_RTOS/cmsis_os.c ****  * ARISING IN ANY WAY OUT OF THE USE OF THIS SOFTWARE, EVEN IF ADVISED OF THE
  53:Middlewares/Third_Party/FreeRTOS/Source/CMSIS_RTOS/cmsis_os.c ****  * POSSIBILITY OF SUCH DAMAGE.
  54:Middlewares/Third_Party/FreeRTOS/Source/CMSIS_RTOS/cmsis_os.c ****  *---------------------------------------------------------------------------*/
  55:Middlewares/Third_Party/FreeRTOS/Source/CMSIS_RTOS/cmsis_os.c **** 
  56:Middlewares/Third_Party/FreeRTOS/Source/CMSIS_RTOS/cmsis_os.c **** #include <string.h>
  57:Middlewares/Third_Party/FreeRTOS/Source/CMSIS_RTOS/cmsis_os.c **** #include "cmsis_os.h"
  58:Middlewares/Third_Party/FreeRTOS/Source/CMSIS_RTOS/cmsis_os.c **** 
  59:Middlewares/Third_Party/FreeRTOS/Source/CMSIS_RTOS/cmsis_os.c **** /*
  60:Middlewares/Third_Party/FreeRTOS/Source/CMSIS_RTOS/cmsis_os.c ****  * ARM Compiler 4/5
  61:Middlewares/Third_Party/FreeRTOS/Source/CMSIS_RTOS/cmsis_os.c ****  */
  62:Middlewares/Third_Party/FreeRTOS/Source/CMSIS_RTOS/cmsis_os.c **** #if   defined ( __CC_ARM )
  63:Middlewares/Third_Party/FreeRTOS/Source/CMSIS_RTOS/cmsis_os.c **** 
  64:Middlewares/Third_Party/FreeRTOS/Source/CMSIS_RTOS/cmsis_os.c ****   #define __ASM            __asm                                      
  65:Middlewares/Third_Party/FreeRTOS/Source/CMSIS_RTOS/cmsis_os.c ****   #define __INLINE         __inline                                     
  66:Middlewares/Third_Party/FreeRTOS/Source/CMSIS_RTOS/cmsis_os.c ****   #define __STATIC_INLINE  static __inline
  67:Middlewares/Third_Party/FreeRTOS/Source/CMSIS_RTOS/cmsis_os.c **** 
  68:Middlewares/Third_Party/FreeRTOS/Source/CMSIS_RTOS/cmsis_os.c ****   #include "cmsis_armcc.h"
  69:Middlewares/Third_Party/FreeRTOS/Source/CMSIS_RTOS/cmsis_os.c **** 
  70:Middlewares/Third_Party/FreeRTOS/Source/CMSIS_RTOS/cmsis_os.c **** /*
  71:Middlewares/Third_Party/FreeRTOS/Source/CMSIS_RTOS/cmsis_os.c ****  * GNU Compiler
  72:Middlewares/Third_Party/FreeRTOS/Source/CMSIS_RTOS/cmsis_os.c ****  */
  73:Middlewares/Third_Party/FreeRTOS/Source/CMSIS_RTOS/cmsis_os.c **** #elif defined ( __GNUC__ )
  74:Middlewares/Third_Party/FreeRTOS/Source/CMSIS_RTOS/cmsis_os.c **** 
  75:Middlewares/Third_Party/FreeRTOS/Source/CMSIS_RTOS/cmsis_os.c ****   #define __ASM            __asm                                      /*!< asm keyword for GNU Comp
  76:Middlewares/Third_Party/FreeRTOS/Source/CMSIS_RTOS/cmsis_os.c ****   #define __INLINE         inline                                     /*!< inline keyword for GNU C
  77:Middlewares/Third_Party/FreeRTOS/Source/CMSIS_RTOS/cmsis_os.c ****   #define __STATIC_INLINE  static inline
  78:Middlewares/Third_Party/FreeRTOS/Source/CMSIS_RTOS/cmsis_os.c **** 
  79:Middlewares/Third_Party/FreeRTOS/Source/CMSIS_RTOS/cmsis_os.c ****   #include "cmsis_gcc.h"
  80:Middlewares/Third_Party/FreeRTOS/Source/CMSIS_RTOS/cmsis_os.c **** 
  81:Middlewares/Third_Party/FreeRTOS/Source/CMSIS_RTOS/cmsis_os.c **** 
  82:Middlewares/Third_Party/FreeRTOS/Source/CMSIS_RTOS/cmsis_os.c **** /*
  83:Middlewares/Third_Party/FreeRTOS/Source/CMSIS_RTOS/cmsis_os.c ****  * IAR Compiler
  84:Middlewares/Third_Party/FreeRTOS/Source/CMSIS_RTOS/cmsis_os.c ****  */
  85:Middlewares/Third_Party/FreeRTOS/Source/CMSIS_RTOS/cmsis_os.c **** #elif defined ( __ICCARM__ )
  86:Middlewares/Third_Party/FreeRTOS/Source/CMSIS_RTOS/cmsis_os.c **** 
  87:Middlewares/Third_Party/FreeRTOS/Source/CMSIS_RTOS/cmsis_os.c ****   #ifndef   __ASM
  88:Middlewares/Third_Party/FreeRTOS/Source/CMSIS_RTOS/cmsis_os.c ****     #define __ASM                     __asm
  89:Middlewares/Third_Party/FreeRTOS/Source/CMSIS_RTOS/cmsis_os.c ****   #endif
ARM GAS  C:\Users\LJH\AppData\Local\Temp\ccdyqIDU.s 			page 3


  90:Middlewares/Third_Party/FreeRTOS/Source/CMSIS_RTOS/cmsis_os.c ****   #ifndef   __INLINE
  91:Middlewares/Third_Party/FreeRTOS/Source/CMSIS_RTOS/cmsis_os.c ****     #define __INLINE                  inline
  92:Middlewares/Third_Party/FreeRTOS/Source/CMSIS_RTOS/cmsis_os.c ****   #endif
  93:Middlewares/Third_Party/FreeRTOS/Source/CMSIS_RTOS/cmsis_os.c ****   #ifndef   __STATIC_INLINE
  94:Middlewares/Third_Party/FreeRTOS/Source/CMSIS_RTOS/cmsis_os.c ****     #define __STATIC_INLINE           static inline
  95:Middlewares/Third_Party/FreeRTOS/Source/CMSIS_RTOS/cmsis_os.c ****   #endif
  96:Middlewares/Third_Party/FreeRTOS/Source/CMSIS_RTOS/cmsis_os.c **** 
  97:Middlewares/Third_Party/FreeRTOS/Source/CMSIS_RTOS/cmsis_os.c ****   #include <cmsis_iar.h>
  98:Middlewares/Third_Party/FreeRTOS/Source/CMSIS_RTOS/cmsis_os.c **** #endif
  99:Middlewares/Third_Party/FreeRTOS/Source/CMSIS_RTOS/cmsis_os.c **** 
 100:Middlewares/Third_Party/FreeRTOS/Source/CMSIS_RTOS/cmsis_os.c **** extern void xPortSysTickHandler(void);
 101:Middlewares/Third_Party/FreeRTOS/Source/CMSIS_RTOS/cmsis_os.c **** 
 102:Middlewares/Third_Party/FreeRTOS/Source/CMSIS_RTOS/cmsis_os.c **** /* Convert from CMSIS type osPriority to FreeRTOS priority number */
 103:Middlewares/Third_Party/FreeRTOS/Source/CMSIS_RTOS/cmsis_os.c **** static unsigned portBASE_TYPE makeFreeRtosPriority (osPriority priority)
 104:Middlewares/Third_Party/FreeRTOS/Source/CMSIS_RTOS/cmsis_os.c **** {
  27              		.loc 1 104 1 view -0
  28              		.cfi_startproc
  29              		@ args = 0, pretend = 0, frame = 0
  30              		@ frame_needed = 0, uses_anonymous_args = 0
  31              		@ link register save eliminated.
 105:Middlewares/Third_Party/FreeRTOS/Source/CMSIS_RTOS/cmsis_os.c ****   unsigned portBASE_TYPE fpriority = tskIDLE_PRIORITY;
  32              		.loc 1 105 3 view .LVU1
 106:Middlewares/Third_Party/FreeRTOS/Source/CMSIS_RTOS/cmsis_os.c ****   
 107:Middlewares/Third_Party/FreeRTOS/Source/CMSIS_RTOS/cmsis_os.c ****   if (priority != osPriorityError) {
  33              		.loc 1 107 3 view .LVU2
  34              		.loc 1 107 6 is_stmt 0 view .LVU3
  35 0000 8428     		cmp	r0, #132
  36 0002 01D0     		beq	.L3
 108:Middlewares/Third_Party/FreeRTOS/Source/CMSIS_RTOS/cmsis_os.c ****     fpriority += (priority - osPriorityIdle);
  37              		.loc 1 108 5 is_stmt 1 view .LVU4
  38              		.loc 1 108 15 is_stmt 0 view .LVU5
  39 0004 0330     		adds	r0, r0, #3
  40              	.LVL1:
  41              		.loc 1 108 15 view .LVU6
  42 0006 7047     		bx	lr
  43              	.LVL2:
  44              	.L3:
 105:Middlewares/Third_Party/FreeRTOS/Source/CMSIS_RTOS/cmsis_os.c ****   unsigned portBASE_TYPE fpriority = tskIDLE_PRIORITY;
  45              		.loc 1 105 26 view .LVU7
  46 0008 0020     		movs	r0, #0
  47              	.LVL3:
 109:Middlewares/Third_Party/FreeRTOS/Source/CMSIS_RTOS/cmsis_os.c ****   }
 110:Middlewares/Third_Party/FreeRTOS/Source/CMSIS_RTOS/cmsis_os.c ****   
 111:Middlewares/Third_Party/FreeRTOS/Source/CMSIS_RTOS/cmsis_os.c ****   return fpriority;
  48              		.loc 1 111 3 is_stmt 1 view .LVU8
 112:Middlewares/Third_Party/FreeRTOS/Source/CMSIS_RTOS/cmsis_os.c **** }
  49              		.loc 1 112 1 is_stmt 0 view .LVU9
  50 000a 7047     		bx	lr
  51              		.cfi_endproc
  52              	.LFE49:
  54              		.section	.text.makeCmsisPriority,"ax",%progbits
  55              		.align	1
  56              		.syntax unified
  57              		.thumb
  58              		.thumb_func
  60              	makeCmsisPriority:
  61              	.LVL4:
ARM GAS  C:\Users\LJH\AppData\Local\Temp\ccdyqIDU.s 			page 4


  62              	.LFB50:
 113:Middlewares/Third_Party/FreeRTOS/Source/CMSIS_RTOS/cmsis_os.c **** 
 114:Middlewares/Third_Party/FreeRTOS/Source/CMSIS_RTOS/cmsis_os.c **** #if (INCLUDE_uxTaskPriorityGet == 1)
 115:Middlewares/Third_Party/FreeRTOS/Source/CMSIS_RTOS/cmsis_os.c **** /* Convert from FreeRTOS priority number to CMSIS type osPriority */
 116:Middlewares/Third_Party/FreeRTOS/Source/CMSIS_RTOS/cmsis_os.c **** static osPriority makeCmsisPriority (unsigned portBASE_TYPE fpriority)
 117:Middlewares/Third_Party/FreeRTOS/Source/CMSIS_RTOS/cmsis_os.c **** {
  63              		.loc 1 117 1 is_stmt 1 view -0
  64              		.cfi_startproc
  65              		@ args = 0, pretend = 0, frame = 0
  66              		@ frame_needed = 0, uses_anonymous_args = 0
  67              		@ link register save eliminated.
 118:Middlewares/Third_Party/FreeRTOS/Source/CMSIS_RTOS/cmsis_os.c ****   osPriority priority = osPriorityError;
  68              		.loc 1 118 3 view .LVU11
 119:Middlewares/Third_Party/FreeRTOS/Source/CMSIS_RTOS/cmsis_os.c ****   
 120:Middlewares/Third_Party/FreeRTOS/Source/CMSIS_RTOS/cmsis_os.c ****   if ((fpriority - tskIDLE_PRIORITY) <= (osPriorityRealtime - osPriorityIdle)) {
  69              		.loc 1 120 3 view .LVU12
  70              		.loc 1 120 6 is_stmt 0 view .LVU13
  71 0000 0628     		cmp	r0, #6
  72 0002 02D8     		bhi	.L6
 121:Middlewares/Third_Party/FreeRTOS/Source/CMSIS_RTOS/cmsis_os.c ****     priority = (osPriority)((int)osPriorityIdle + (int)(fpriority - tskIDLE_PRIORITY));
  73              		.loc 1 121 5 is_stmt 1 view .LVU14
  74              		.loc 1 121 49 is_stmt 0 view .LVU15
  75 0004 0338     		subs	r0, r0, #3
  76              	.LVL5:
  77              		.loc 1 121 14 view .LVU16
  78 0006 00B2     		sxth	r0, r0
  79              	.LVL6:
  80              		.loc 1 121 14 view .LVU17
  81 0008 7047     		bx	lr
  82              	.LVL7:
  83              	.L6:
 118:Middlewares/Third_Party/FreeRTOS/Source/CMSIS_RTOS/cmsis_os.c ****   osPriority priority = osPriorityError;
  84              		.loc 1 118 14 view .LVU18
  85 000a 8420     		movs	r0, #132
  86              	.LVL8:
 122:Middlewares/Third_Party/FreeRTOS/Source/CMSIS_RTOS/cmsis_os.c ****   }
 123:Middlewares/Third_Party/FreeRTOS/Source/CMSIS_RTOS/cmsis_os.c ****   
 124:Middlewares/Third_Party/FreeRTOS/Source/CMSIS_RTOS/cmsis_os.c ****   return priority;
  87              		.loc 1 124 3 is_stmt 1 view .LVU19
 125:Middlewares/Third_Party/FreeRTOS/Source/CMSIS_RTOS/cmsis_os.c **** }
  88              		.loc 1 125 1 is_stmt 0 view .LVU20
  89 000c 7047     		bx	lr
  90              		.cfi_endproc
  91              	.LFE50:
  93              		.section	.text.inHandlerMode,"ax",%progbits
  94              		.align	1
  95              		.syntax unified
  96              		.thumb
  97              		.thumb_func
  99              	inHandlerMode:
 100              	.LFB51:
 126:Middlewares/Third_Party/FreeRTOS/Source/CMSIS_RTOS/cmsis_os.c **** #endif
 127:Middlewares/Third_Party/FreeRTOS/Source/CMSIS_RTOS/cmsis_os.c **** 
 128:Middlewares/Third_Party/FreeRTOS/Source/CMSIS_RTOS/cmsis_os.c **** 
 129:Middlewares/Third_Party/FreeRTOS/Source/CMSIS_RTOS/cmsis_os.c **** /* Determine whether we are in thread mode or handler mode. */
 130:Middlewares/Third_Party/FreeRTOS/Source/CMSIS_RTOS/cmsis_os.c **** static int inHandlerMode (void)
 131:Middlewares/Third_Party/FreeRTOS/Source/CMSIS_RTOS/cmsis_os.c **** {
ARM GAS  C:\Users\LJH\AppData\Local\Temp\ccdyqIDU.s 			page 5


 101              		.loc 1 131 1 is_stmt 1 view -0
 102              		.cfi_startproc
 103              		@ args = 0, pretend = 0, frame = 0
 104              		@ frame_needed = 0, uses_anonymous_args = 0
 105              		@ link register save eliminated.
 132:Middlewares/Third_Party/FreeRTOS/Source/CMSIS_RTOS/cmsis_os.c ****   return __get_IPSR() != 0;
 106              		.loc 1 132 3 view .LVU22
 107              	.LBB8:
 108              	.LBI8:
 109              		.file 2 "Drivers/CMSIS/Include/cmsis_gcc.h"
   1:Drivers/CMSIS/Include/cmsis_gcc.h **** /**************************************************************************//**
   2:Drivers/CMSIS/Include/cmsis_gcc.h ****  * @file     cmsis_gcc.h
   3:Drivers/CMSIS/Include/cmsis_gcc.h ****  * @brief    CMSIS compiler GCC header file
   4:Drivers/CMSIS/Include/cmsis_gcc.h ****  * @version  V5.0.4
   5:Drivers/CMSIS/Include/cmsis_gcc.h ****  * @date     09. April 2018
   6:Drivers/CMSIS/Include/cmsis_gcc.h ****  ******************************************************************************/
   7:Drivers/CMSIS/Include/cmsis_gcc.h **** /*
   8:Drivers/CMSIS/Include/cmsis_gcc.h ****  * Copyright (c) 2009-2018 Arm Limited. All rights reserved.
   9:Drivers/CMSIS/Include/cmsis_gcc.h ****  *
  10:Drivers/CMSIS/Include/cmsis_gcc.h ****  * SPDX-License-Identifier: Apache-2.0
  11:Drivers/CMSIS/Include/cmsis_gcc.h ****  *
  12:Drivers/CMSIS/Include/cmsis_gcc.h ****  * Licensed under the Apache License, Version 2.0 (the License); you may
  13:Drivers/CMSIS/Include/cmsis_gcc.h ****  * not use this file except in compliance with the License.
  14:Drivers/CMSIS/Include/cmsis_gcc.h ****  * You may obtain a copy of the License at
  15:Drivers/CMSIS/Include/cmsis_gcc.h ****  *
  16:Drivers/CMSIS/Include/cmsis_gcc.h ****  * www.apache.org/licenses/LICENSE-2.0
  17:Drivers/CMSIS/Include/cmsis_gcc.h ****  *
  18:Drivers/CMSIS/Include/cmsis_gcc.h ****  * Unless required by applicable law or agreed to in writing, software
  19:Drivers/CMSIS/Include/cmsis_gcc.h ****  * distributed under the License is distributed on an AS IS BASIS, WITHOUT
  20:Drivers/CMSIS/Include/cmsis_gcc.h ****  * WARRANTIES OR CONDITIONS OF ANY KIND, either express or implied.
  21:Drivers/CMSIS/Include/cmsis_gcc.h ****  * See the License for the specific language governing permissions and
  22:Drivers/CMSIS/Include/cmsis_gcc.h ****  * limitations under the License.
  23:Drivers/CMSIS/Include/cmsis_gcc.h ****  */
  24:Drivers/CMSIS/Include/cmsis_gcc.h **** 
  25:Drivers/CMSIS/Include/cmsis_gcc.h **** #ifndef __CMSIS_GCC_H
  26:Drivers/CMSIS/Include/cmsis_gcc.h **** #define __CMSIS_GCC_H
  27:Drivers/CMSIS/Include/cmsis_gcc.h **** 
  28:Drivers/CMSIS/Include/cmsis_gcc.h **** /* ignore some GCC warnings */
  29:Drivers/CMSIS/Include/cmsis_gcc.h **** #pragma GCC diagnostic push
  30:Drivers/CMSIS/Include/cmsis_gcc.h **** #pragma GCC diagnostic ignored "-Wsign-conversion"
  31:Drivers/CMSIS/Include/cmsis_gcc.h **** #pragma GCC diagnostic ignored "-Wconversion"
  32:Drivers/CMSIS/Include/cmsis_gcc.h **** #pragma GCC diagnostic ignored "-Wunused-parameter"
  33:Drivers/CMSIS/Include/cmsis_gcc.h **** 
  34:Drivers/CMSIS/Include/cmsis_gcc.h **** /* Fallback for __has_builtin */
  35:Drivers/CMSIS/Include/cmsis_gcc.h **** #ifndef __has_builtin
  36:Drivers/CMSIS/Include/cmsis_gcc.h ****   #define __has_builtin(x) (0)
  37:Drivers/CMSIS/Include/cmsis_gcc.h **** #endif
  38:Drivers/CMSIS/Include/cmsis_gcc.h **** 
  39:Drivers/CMSIS/Include/cmsis_gcc.h **** /* CMSIS compiler specific defines */
  40:Drivers/CMSIS/Include/cmsis_gcc.h **** #ifndef   __ASM
  41:Drivers/CMSIS/Include/cmsis_gcc.h ****   #define __ASM                                  __asm
  42:Drivers/CMSIS/Include/cmsis_gcc.h **** #endif
  43:Drivers/CMSIS/Include/cmsis_gcc.h **** #ifndef   __INLINE
  44:Drivers/CMSIS/Include/cmsis_gcc.h ****   #define __INLINE                               inline
  45:Drivers/CMSIS/Include/cmsis_gcc.h **** #endif
  46:Drivers/CMSIS/Include/cmsis_gcc.h **** #ifndef   __STATIC_INLINE
  47:Drivers/CMSIS/Include/cmsis_gcc.h ****   #define __STATIC_INLINE                        static inline
ARM GAS  C:\Users\LJH\AppData\Local\Temp\ccdyqIDU.s 			page 6


  48:Drivers/CMSIS/Include/cmsis_gcc.h **** #endif
  49:Drivers/CMSIS/Include/cmsis_gcc.h **** #ifndef   __STATIC_FORCEINLINE                 
  50:Drivers/CMSIS/Include/cmsis_gcc.h ****   #define __STATIC_FORCEINLINE                   __attribute__((always_inline)) static inline
  51:Drivers/CMSIS/Include/cmsis_gcc.h **** #endif                                           
  52:Drivers/CMSIS/Include/cmsis_gcc.h **** #ifndef   __NO_RETURN
  53:Drivers/CMSIS/Include/cmsis_gcc.h ****   #define __NO_RETURN                            __attribute__((__noreturn__))
  54:Drivers/CMSIS/Include/cmsis_gcc.h **** #endif
  55:Drivers/CMSIS/Include/cmsis_gcc.h **** #ifndef   __USED
  56:Drivers/CMSIS/Include/cmsis_gcc.h ****   #define __USED                                 __attribute__((used))
  57:Drivers/CMSIS/Include/cmsis_gcc.h **** #endif
  58:Drivers/CMSIS/Include/cmsis_gcc.h **** #ifndef   __WEAK
  59:Drivers/CMSIS/Include/cmsis_gcc.h ****   #define __WEAK                                 __attribute__((weak))
  60:Drivers/CMSIS/Include/cmsis_gcc.h **** #endif
  61:Drivers/CMSIS/Include/cmsis_gcc.h **** #ifndef   __PACKED
  62:Drivers/CMSIS/Include/cmsis_gcc.h ****   #define __PACKED                               __attribute__((packed, aligned(1)))
  63:Drivers/CMSIS/Include/cmsis_gcc.h **** #endif
  64:Drivers/CMSIS/Include/cmsis_gcc.h **** #ifndef   __PACKED_STRUCT
  65:Drivers/CMSIS/Include/cmsis_gcc.h ****   #define __PACKED_STRUCT                        struct __attribute__((packed, aligned(1)))
  66:Drivers/CMSIS/Include/cmsis_gcc.h **** #endif
  67:Drivers/CMSIS/Include/cmsis_gcc.h **** #ifndef   __PACKED_UNION
  68:Drivers/CMSIS/Include/cmsis_gcc.h ****   #define __PACKED_UNION                         union __attribute__((packed, aligned(1)))
  69:Drivers/CMSIS/Include/cmsis_gcc.h **** #endif
  70:Drivers/CMSIS/Include/cmsis_gcc.h **** #ifndef   __UNALIGNED_UINT32        /* deprecated */
  71:Drivers/CMSIS/Include/cmsis_gcc.h ****   #pragma GCC diagnostic push
  72:Drivers/CMSIS/Include/cmsis_gcc.h ****   #pragma GCC diagnostic ignored "-Wpacked"
  73:Drivers/CMSIS/Include/cmsis_gcc.h ****   #pragma GCC diagnostic ignored "-Wattributes"
  74:Drivers/CMSIS/Include/cmsis_gcc.h ****   struct __attribute__((packed)) T_UINT32 { uint32_t v; };
  75:Drivers/CMSIS/Include/cmsis_gcc.h ****   #pragma GCC diagnostic pop
  76:Drivers/CMSIS/Include/cmsis_gcc.h ****   #define __UNALIGNED_UINT32(x)                  (((struct T_UINT32 *)(x))->v)
  77:Drivers/CMSIS/Include/cmsis_gcc.h **** #endif
  78:Drivers/CMSIS/Include/cmsis_gcc.h **** #ifndef   __UNALIGNED_UINT16_WRITE
  79:Drivers/CMSIS/Include/cmsis_gcc.h ****   #pragma GCC diagnostic push
  80:Drivers/CMSIS/Include/cmsis_gcc.h ****   #pragma GCC diagnostic ignored "-Wpacked"
  81:Drivers/CMSIS/Include/cmsis_gcc.h ****   #pragma GCC diagnostic ignored "-Wattributes"
  82:Drivers/CMSIS/Include/cmsis_gcc.h ****   __PACKED_STRUCT T_UINT16_WRITE { uint16_t v; };
  83:Drivers/CMSIS/Include/cmsis_gcc.h ****   #pragma GCC diagnostic pop
  84:Drivers/CMSIS/Include/cmsis_gcc.h ****   #define __UNALIGNED_UINT16_WRITE(addr, val)    (void)((((struct T_UINT16_WRITE *)(void *)(addr))-
  85:Drivers/CMSIS/Include/cmsis_gcc.h **** #endif
  86:Drivers/CMSIS/Include/cmsis_gcc.h **** #ifndef   __UNALIGNED_UINT16_READ
  87:Drivers/CMSIS/Include/cmsis_gcc.h ****   #pragma GCC diagnostic push
  88:Drivers/CMSIS/Include/cmsis_gcc.h ****   #pragma GCC diagnostic ignored "-Wpacked"
  89:Drivers/CMSIS/Include/cmsis_gcc.h ****   #pragma GCC diagnostic ignored "-Wattributes"
  90:Drivers/CMSIS/Include/cmsis_gcc.h ****   __PACKED_STRUCT T_UINT16_READ { uint16_t v; };
  91:Drivers/CMSIS/Include/cmsis_gcc.h ****   #pragma GCC diagnostic pop
  92:Drivers/CMSIS/Include/cmsis_gcc.h ****   #define __UNALIGNED_UINT16_READ(addr)          (((const struct T_UINT16_READ *)(const void *)(add
  93:Drivers/CMSIS/Include/cmsis_gcc.h **** #endif
  94:Drivers/CMSIS/Include/cmsis_gcc.h **** #ifndef   __UNALIGNED_UINT32_WRITE
  95:Drivers/CMSIS/Include/cmsis_gcc.h ****   #pragma GCC diagnostic push
  96:Drivers/CMSIS/Include/cmsis_gcc.h ****   #pragma GCC diagnostic ignored "-Wpacked"
  97:Drivers/CMSIS/Include/cmsis_gcc.h ****   #pragma GCC diagnostic ignored "-Wattributes"
  98:Drivers/CMSIS/Include/cmsis_gcc.h ****   __PACKED_STRUCT T_UINT32_WRITE { uint32_t v; };
  99:Drivers/CMSIS/Include/cmsis_gcc.h ****   #pragma GCC diagnostic pop
 100:Drivers/CMSIS/Include/cmsis_gcc.h ****   #define __UNALIGNED_UINT32_WRITE(addr, val)    (void)((((struct T_UINT32_WRITE *)(void *)(addr))-
 101:Drivers/CMSIS/Include/cmsis_gcc.h **** #endif
 102:Drivers/CMSIS/Include/cmsis_gcc.h **** #ifndef   __UNALIGNED_UINT32_READ
 103:Drivers/CMSIS/Include/cmsis_gcc.h ****   #pragma GCC diagnostic push
 104:Drivers/CMSIS/Include/cmsis_gcc.h ****   #pragma GCC diagnostic ignored "-Wpacked"
ARM GAS  C:\Users\LJH\AppData\Local\Temp\ccdyqIDU.s 			page 7


 105:Drivers/CMSIS/Include/cmsis_gcc.h ****   #pragma GCC diagnostic ignored "-Wattributes"
 106:Drivers/CMSIS/Include/cmsis_gcc.h ****   __PACKED_STRUCT T_UINT32_READ { uint32_t v; };
 107:Drivers/CMSIS/Include/cmsis_gcc.h ****   #pragma GCC diagnostic pop
 108:Drivers/CMSIS/Include/cmsis_gcc.h ****   #define __UNALIGNED_UINT32_READ(addr)          (((const struct T_UINT32_READ *)(const void *)(add
 109:Drivers/CMSIS/Include/cmsis_gcc.h **** #endif
 110:Drivers/CMSIS/Include/cmsis_gcc.h **** #ifndef   __ALIGNED
 111:Drivers/CMSIS/Include/cmsis_gcc.h ****   #define __ALIGNED(x)                           __attribute__((aligned(x)))
 112:Drivers/CMSIS/Include/cmsis_gcc.h **** #endif
 113:Drivers/CMSIS/Include/cmsis_gcc.h **** #ifndef   __RESTRICT
 114:Drivers/CMSIS/Include/cmsis_gcc.h ****   #define __RESTRICT                             __restrict
 115:Drivers/CMSIS/Include/cmsis_gcc.h **** #endif
 116:Drivers/CMSIS/Include/cmsis_gcc.h **** 
 117:Drivers/CMSIS/Include/cmsis_gcc.h **** 
 118:Drivers/CMSIS/Include/cmsis_gcc.h **** /* ###########################  Core Function Access  ########################### */
 119:Drivers/CMSIS/Include/cmsis_gcc.h **** /** \ingroup  CMSIS_Core_FunctionInterface
 120:Drivers/CMSIS/Include/cmsis_gcc.h ****     \defgroup CMSIS_Core_RegAccFunctions CMSIS Core Register Access Functions
 121:Drivers/CMSIS/Include/cmsis_gcc.h ****   @{
 122:Drivers/CMSIS/Include/cmsis_gcc.h ****  */
 123:Drivers/CMSIS/Include/cmsis_gcc.h **** 
 124:Drivers/CMSIS/Include/cmsis_gcc.h **** /**
 125:Drivers/CMSIS/Include/cmsis_gcc.h ****   \brief   Enable IRQ Interrupts
 126:Drivers/CMSIS/Include/cmsis_gcc.h ****   \details Enables IRQ interrupts by clearing the I-bit in the CPSR.
 127:Drivers/CMSIS/Include/cmsis_gcc.h ****            Can only be executed in Privileged modes.
 128:Drivers/CMSIS/Include/cmsis_gcc.h ****  */
 129:Drivers/CMSIS/Include/cmsis_gcc.h **** __STATIC_FORCEINLINE void __enable_irq(void)
 130:Drivers/CMSIS/Include/cmsis_gcc.h **** {
 131:Drivers/CMSIS/Include/cmsis_gcc.h ****   __ASM volatile ("cpsie i" : : : "memory");
 132:Drivers/CMSIS/Include/cmsis_gcc.h **** }
 133:Drivers/CMSIS/Include/cmsis_gcc.h **** 
 134:Drivers/CMSIS/Include/cmsis_gcc.h **** 
 135:Drivers/CMSIS/Include/cmsis_gcc.h **** /**
 136:Drivers/CMSIS/Include/cmsis_gcc.h ****   \brief   Disable IRQ Interrupts
 137:Drivers/CMSIS/Include/cmsis_gcc.h ****   \details Disables IRQ interrupts by setting the I-bit in the CPSR.
 138:Drivers/CMSIS/Include/cmsis_gcc.h ****            Can only be executed in Privileged modes.
 139:Drivers/CMSIS/Include/cmsis_gcc.h ****  */
 140:Drivers/CMSIS/Include/cmsis_gcc.h **** __STATIC_FORCEINLINE void __disable_irq(void)
 141:Drivers/CMSIS/Include/cmsis_gcc.h **** {
 142:Drivers/CMSIS/Include/cmsis_gcc.h ****   __ASM volatile ("cpsid i" : : : "memory");
 143:Drivers/CMSIS/Include/cmsis_gcc.h **** }
 144:Drivers/CMSIS/Include/cmsis_gcc.h **** 
 145:Drivers/CMSIS/Include/cmsis_gcc.h **** 
 146:Drivers/CMSIS/Include/cmsis_gcc.h **** /**
 147:Drivers/CMSIS/Include/cmsis_gcc.h ****   \brief   Get Control Register
 148:Drivers/CMSIS/Include/cmsis_gcc.h ****   \details Returns the content of the Control Register.
 149:Drivers/CMSIS/Include/cmsis_gcc.h ****   \return               Control Register value
 150:Drivers/CMSIS/Include/cmsis_gcc.h ****  */
 151:Drivers/CMSIS/Include/cmsis_gcc.h **** __STATIC_FORCEINLINE uint32_t __get_CONTROL(void)
 152:Drivers/CMSIS/Include/cmsis_gcc.h **** {
 153:Drivers/CMSIS/Include/cmsis_gcc.h ****   uint32_t result;
 154:Drivers/CMSIS/Include/cmsis_gcc.h **** 
 155:Drivers/CMSIS/Include/cmsis_gcc.h ****   __ASM volatile ("MRS %0, control" : "=r" (result) );
 156:Drivers/CMSIS/Include/cmsis_gcc.h ****   return(result);
 157:Drivers/CMSIS/Include/cmsis_gcc.h **** }
 158:Drivers/CMSIS/Include/cmsis_gcc.h **** 
 159:Drivers/CMSIS/Include/cmsis_gcc.h **** 
 160:Drivers/CMSIS/Include/cmsis_gcc.h **** #if (defined (__ARM_FEATURE_CMSE ) && (__ARM_FEATURE_CMSE == 3))
 161:Drivers/CMSIS/Include/cmsis_gcc.h **** /**
ARM GAS  C:\Users\LJH\AppData\Local\Temp\ccdyqIDU.s 			page 8


 162:Drivers/CMSIS/Include/cmsis_gcc.h ****   \brief   Get Control Register (non-secure)
 163:Drivers/CMSIS/Include/cmsis_gcc.h ****   \details Returns the content of the non-secure Control Register when in secure mode.
 164:Drivers/CMSIS/Include/cmsis_gcc.h ****   \return               non-secure Control Register value
 165:Drivers/CMSIS/Include/cmsis_gcc.h ****  */
 166:Drivers/CMSIS/Include/cmsis_gcc.h **** __STATIC_FORCEINLINE uint32_t __TZ_get_CONTROL_NS(void)
 167:Drivers/CMSIS/Include/cmsis_gcc.h **** {
 168:Drivers/CMSIS/Include/cmsis_gcc.h ****   uint32_t result;
 169:Drivers/CMSIS/Include/cmsis_gcc.h **** 
 170:Drivers/CMSIS/Include/cmsis_gcc.h ****   __ASM volatile ("MRS %0, control_ns" : "=r" (result) );
 171:Drivers/CMSIS/Include/cmsis_gcc.h ****   return(result);
 172:Drivers/CMSIS/Include/cmsis_gcc.h **** }
 173:Drivers/CMSIS/Include/cmsis_gcc.h **** #endif
 174:Drivers/CMSIS/Include/cmsis_gcc.h **** 
 175:Drivers/CMSIS/Include/cmsis_gcc.h **** 
 176:Drivers/CMSIS/Include/cmsis_gcc.h **** /**
 177:Drivers/CMSIS/Include/cmsis_gcc.h ****   \brief   Set Control Register
 178:Drivers/CMSIS/Include/cmsis_gcc.h ****   \details Writes the given value to the Control Register.
 179:Drivers/CMSIS/Include/cmsis_gcc.h ****   \param [in]    control  Control Register value to set
 180:Drivers/CMSIS/Include/cmsis_gcc.h ****  */
 181:Drivers/CMSIS/Include/cmsis_gcc.h **** __STATIC_FORCEINLINE void __set_CONTROL(uint32_t control)
 182:Drivers/CMSIS/Include/cmsis_gcc.h **** {
 183:Drivers/CMSIS/Include/cmsis_gcc.h ****   __ASM volatile ("MSR control, %0" : : "r" (control) : "memory");
 184:Drivers/CMSIS/Include/cmsis_gcc.h **** }
 185:Drivers/CMSIS/Include/cmsis_gcc.h **** 
 186:Drivers/CMSIS/Include/cmsis_gcc.h **** 
 187:Drivers/CMSIS/Include/cmsis_gcc.h **** #if (defined (__ARM_FEATURE_CMSE ) && (__ARM_FEATURE_CMSE == 3))
 188:Drivers/CMSIS/Include/cmsis_gcc.h **** /**
 189:Drivers/CMSIS/Include/cmsis_gcc.h ****   \brief   Set Control Register (non-secure)
 190:Drivers/CMSIS/Include/cmsis_gcc.h ****   \details Writes the given value to the non-secure Control Register when in secure state.
 191:Drivers/CMSIS/Include/cmsis_gcc.h ****   \param [in]    control  Control Register value to set
 192:Drivers/CMSIS/Include/cmsis_gcc.h ****  */
 193:Drivers/CMSIS/Include/cmsis_gcc.h **** __STATIC_FORCEINLINE void __TZ_set_CONTROL_NS(uint32_t control)
 194:Drivers/CMSIS/Include/cmsis_gcc.h **** {
 195:Drivers/CMSIS/Include/cmsis_gcc.h ****   __ASM volatile ("MSR control_ns, %0" : : "r" (control) : "memory");
 196:Drivers/CMSIS/Include/cmsis_gcc.h **** }
 197:Drivers/CMSIS/Include/cmsis_gcc.h **** #endif
 198:Drivers/CMSIS/Include/cmsis_gcc.h **** 
 199:Drivers/CMSIS/Include/cmsis_gcc.h **** 
 200:Drivers/CMSIS/Include/cmsis_gcc.h **** /**
 201:Drivers/CMSIS/Include/cmsis_gcc.h ****   \brief   Get IPSR Register
 202:Drivers/CMSIS/Include/cmsis_gcc.h ****   \details Returns the content of the IPSR Register.
 203:Drivers/CMSIS/Include/cmsis_gcc.h ****   \return               IPSR Register value
 204:Drivers/CMSIS/Include/cmsis_gcc.h ****  */
 205:Drivers/CMSIS/Include/cmsis_gcc.h **** __STATIC_FORCEINLINE uint32_t __get_IPSR(void)
 110              		.loc 2 205 31 view .LVU23
 111              	.LBB9:
 206:Drivers/CMSIS/Include/cmsis_gcc.h **** {
 207:Drivers/CMSIS/Include/cmsis_gcc.h ****   uint32_t result;
 112              		.loc 2 207 3 view .LVU24
 208:Drivers/CMSIS/Include/cmsis_gcc.h **** 
 209:Drivers/CMSIS/Include/cmsis_gcc.h ****   __ASM volatile ("MRS %0, ipsr" : "=r" (result) );
 113              		.loc 2 209 3 view .LVU25
 114              		.syntax unified
 115              	@ 209 "Drivers/CMSIS/Include/cmsis_gcc.h" 1
 116 0000 EFF30580 		MRS r0, ipsr
 117              	@ 0 "" 2
 118              	.LVL9:
ARM GAS  C:\Users\LJH\AppData\Local\Temp\ccdyqIDU.s 			page 9


 210:Drivers/CMSIS/Include/cmsis_gcc.h ****   return(result);
 119              		.loc 2 210 3 view .LVU26
 120              		.loc 2 210 3 is_stmt 0 view .LVU27
 121              		.thumb
 122              		.syntax unified
 123              	.LBE9:
 124              	.LBE8:
 133:Middlewares/Third_Party/FreeRTOS/Source/CMSIS_RTOS/cmsis_os.c **** }
 125              		.loc 1 133 1 view .LVU28
 126 0004 0038     		subs	r0, r0, #0
 127 0006 18BF     		it	ne
 128 0008 0120     		movne	r0, #1
 129 000a 7047     		bx	lr
 130              		.cfi_endproc
 131              	.LFE51:
 133              		.section	.text.osKernelStart,"ax",%progbits
 134              		.align	1
 135              		.global	osKernelStart
 136              		.syntax unified
 137              		.thumb
 138              		.thumb_func
 140              	osKernelStart:
 141              	.LFB52:
 134:Middlewares/Third_Party/FreeRTOS/Source/CMSIS_RTOS/cmsis_os.c **** 
 135:Middlewares/Third_Party/FreeRTOS/Source/CMSIS_RTOS/cmsis_os.c **** /*********************** Kernel Control Functions *****************************/
 136:Middlewares/Third_Party/FreeRTOS/Source/CMSIS_RTOS/cmsis_os.c **** /**
 137:Middlewares/Third_Party/FreeRTOS/Source/CMSIS_RTOS/cmsis_os.c **** * @brief  Initialize the RTOS Kernel for creating objects.
 138:Middlewares/Third_Party/FreeRTOS/Source/CMSIS_RTOS/cmsis_os.c **** * @retval status code that indicates the execution status of the function.
 139:Middlewares/Third_Party/FreeRTOS/Source/CMSIS_RTOS/cmsis_os.c **** * @note   MUST REMAIN UNCHANGED: \b osKernelInitialize shall be consistent in every CMSIS-RTOS.
 140:Middlewares/Third_Party/FreeRTOS/Source/CMSIS_RTOS/cmsis_os.c **** */
 141:Middlewares/Third_Party/FreeRTOS/Source/CMSIS_RTOS/cmsis_os.c **** osStatus osKernelInitialize (void);
 142:Middlewares/Third_Party/FreeRTOS/Source/CMSIS_RTOS/cmsis_os.c **** 
 143:Middlewares/Third_Party/FreeRTOS/Source/CMSIS_RTOS/cmsis_os.c **** /**
 144:Middlewares/Third_Party/FreeRTOS/Source/CMSIS_RTOS/cmsis_os.c **** * @brief  Start the RTOS Kernel with executing the specified thread.
 145:Middlewares/Third_Party/FreeRTOS/Source/CMSIS_RTOS/cmsis_os.c **** * @param  thread_def    thread definition referenced with \ref osThread.
 146:Middlewares/Third_Party/FreeRTOS/Source/CMSIS_RTOS/cmsis_os.c **** * @param  argument      pointer that is passed to the thread function as start argument.
 147:Middlewares/Third_Party/FreeRTOS/Source/CMSIS_RTOS/cmsis_os.c **** * @retval status code that indicates the execution status of the function
 148:Middlewares/Third_Party/FreeRTOS/Source/CMSIS_RTOS/cmsis_os.c **** * @note   MUST REMAIN UNCHANGED: \b osKernelStart shall be consistent in every CMSIS-RTOS.
 149:Middlewares/Third_Party/FreeRTOS/Source/CMSIS_RTOS/cmsis_os.c **** */
 150:Middlewares/Third_Party/FreeRTOS/Source/CMSIS_RTOS/cmsis_os.c **** osStatus osKernelStart (void)
 151:Middlewares/Third_Party/FreeRTOS/Source/CMSIS_RTOS/cmsis_os.c **** {
 142              		.loc 1 151 1 is_stmt 1 view -0
 143              		.cfi_startproc
 144              		@ args = 0, pretend = 0, frame = 0
 145              		@ frame_needed = 0, uses_anonymous_args = 0
 146 0000 08B5     		push	{r3, lr}
 147              	.LCFI0:
 148              		.cfi_def_cfa_offset 8
 149              		.cfi_offset 3, -8
 150              		.cfi_offset 14, -4
 152:Middlewares/Third_Party/FreeRTOS/Source/CMSIS_RTOS/cmsis_os.c ****   vTaskStartScheduler();
 151              		.loc 1 152 3 view .LVU30
 152 0002 FFF7FEFF 		bl	vTaskStartScheduler
 153              	.LVL10:
 153:Middlewares/Third_Party/FreeRTOS/Source/CMSIS_RTOS/cmsis_os.c ****   
 154:Middlewares/Third_Party/FreeRTOS/Source/CMSIS_RTOS/cmsis_os.c ****   return osOK;
 154              		.loc 1 154 3 view .LVU31
ARM GAS  C:\Users\LJH\AppData\Local\Temp\ccdyqIDU.s 			page 10


 155:Middlewares/Third_Party/FreeRTOS/Source/CMSIS_RTOS/cmsis_os.c **** }
 155              		.loc 1 155 1 is_stmt 0 view .LVU32
 156 0006 0020     		movs	r0, #0
 157 0008 08BD     		pop	{r3, pc}
 158              		.cfi_endproc
 159              	.LFE52:
 161              		.section	.text.osKernelRunning,"ax",%progbits
 162              		.align	1
 163              		.global	osKernelRunning
 164              		.syntax unified
 165              		.thumb
 166              		.thumb_func
 168              	osKernelRunning:
 169              	.LFB53:
 156:Middlewares/Third_Party/FreeRTOS/Source/CMSIS_RTOS/cmsis_os.c **** 
 157:Middlewares/Third_Party/FreeRTOS/Source/CMSIS_RTOS/cmsis_os.c **** /**
 158:Middlewares/Third_Party/FreeRTOS/Source/CMSIS_RTOS/cmsis_os.c **** * @brief  Check if the RTOS kernel is already started
 159:Middlewares/Third_Party/FreeRTOS/Source/CMSIS_RTOS/cmsis_os.c **** * @param  None
 160:Middlewares/Third_Party/FreeRTOS/Source/CMSIS_RTOS/cmsis_os.c **** * @retval (0) RTOS is not started
 161:Middlewares/Third_Party/FreeRTOS/Source/CMSIS_RTOS/cmsis_os.c **** *         (1) RTOS is started
 162:Middlewares/Third_Party/FreeRTOS/Source/CMSIS_RTOS/cmsis_os.c **** *         (-1) if this feature is disabled in FreeRTOSConfig.h 
 163:Middlewares/Third_Party/FreeRTOS/Source/CMSIS_RTOS/cmsis_os.c **** * @note  MUST REMAIN UNCHANGED: \b osKernelRunning shall be consistent in every CMSIS-RTOS.
 164:Middlewares/Third_Party/FreeRTOS/Source/CMSIS_RTOS/cmsis_os.c **** */
 165:Middlewares/Third_Party/FreeRTOS/Source/CMSIS_RTOS/cmsis_os.c **** int32_t osKernelRunning(void)
 166:Middlewares/Third_Party/FreeRTOS/Source/CMSIS_RTOS/cmsis_os.c **** {
 170              		.loc 1 166 1 is_stmt 1 view -0
 171              		.cfi_startproc
 172              		@ args = 0, pretend = 0, frame = 0
 173              		@ frame_needed = 0, uses_anonymous_args = 0
 174 0000 08B5     		push	{r3, lr}
 175              	.LCFI1:
 176              		.cfi_def_cfa_offset 8
 177              		.cfi_offset 3, -8
 178              		.cfi_offset 14, -4
 167:Middlewares/Third_Party/FreeRTOS/Source/CMSIS_RTOS/cmsis_os.c **** #if ( ( INCLUDE_xTaskGetSchedulerState == 1 ) || ( configUSE_TIMERS == 1 ) )
 168:Middlewares/Third_Party/FreeRTOS/Source/CMSIS_RTOS/cmsis_os.c ****   if (xTaskGetSchedulerState() == taskSCHEDULER_NOT_STARTED)
 179              		.loc 1 168 3 view .LVU34
 180              		.loc 1 168 7 is_stmt 0 view .LVU35
 181 0002 FFF7FEFF 		bl	xTaskGetSchedulerState
 182              	.LVL11:
 183              		.loc 1 168 6 view .LVU36
 184 0006 0128     		cmp	r0, #1
 185 0008 01D0     		beq	.L14
 169:Middlewares/Third_Party/FreeRTOS/Source/CMSIS_RTOS/cmsis_os.c ****     return 0;
 170:Middlewares/Third_Party/FreeRTOS/Source/CMSIS_RTOS/cmsis_os.c ****   else
 171:Middlewares/Third_Party/FreeRTOS/Source/CMSIS_RTOS/cmsis_os.c ****     return 1;
 186              		.loc 1 171 12 view .LVU37
 187 000a 0120     		movs	r0, #1
 188              	.L10:
 172:Middlewares/Third_Party/FreeRTOS/Source/CMSIS_RTOS/cmsis_os.c **** #else
 173:Middlewares/Third_Party/FreeRTOS/Source/CMSIS_RTOS/cmsis_os.c **** 	return (-1);
 174:Middlewares/Third_Party/FreeRTOS/Source/CMSIS_RTOS/cmsis_os.c **** #endif	
 175:Middlewares/Third_Party/FreeRTOS/Source/CMSIS_RTOS/cmsis_os.c **** }
 189              		.loc 1 175 1 view .LVU38
 190 000c 08BD     		pop	{r3, pc}
 191              	.L14:
 169:Middlewares/Third_Party/FreeRTOS/Source/CMSIS_RTOS/cmsis_os.c ****     return 0;
ARM GAS  C:\Users\LJH\AppData\Local\Temp\ccdyqIDU.s 			page 11


 192              		.loc 1 169 12 view .LVU39
 193 000e 0020     		movs	r0, #0
 194 0010 FCE7     		b	.L10
 195              		.cfi_endproc
 196              	.LFE53:
 198              		.section	.text.osKernelSysTick,"ax",%progbits
 199              		.align	1
 200              		.global	osKernelSysTick
 201              		.syntax unified
 202              		.thumb
 203              		.thumb_func
 205              	osKernelSysTick:
 206              	.LFB54:
 176:Middlewares/Third_Party/FreeRTOS/Source/CMSIS_RTOS/cmsis_os.c **** 
 177:Middlewares/Third_Party/FreeRTOS/Source/CMSIS_RTOS/cmsis_os.c **** #if (defined (osFeature_SysTick)  &&  (osFeature_SysTick != 0))     // System Timer available
 178:Middlewares/Third_Party/FreeRTOS/Source/CMSIS_RTOS/cmsis_os.c **** /**
 179:Middlewares/Third_Party/FreeRTOS/Source/CMSIS_RTOS/cmsis_os.c **** * @brief  Get the value of the Kernel SysTick timer
 180:Middlewares/Third_Party/FreeRTOS/Source/CMSIS_RTOS/cmsis_os.c **** * @param  None
 181:Middlewares/Third_Party/FreeRTOS/Source/CMSIS_RTOS/cmsis_os.c **** * @retval None
 182:Middlewares/Third_Party/FreeRTOS/Source/CMSIS_RTOS/cmsis_os.c **** * @note   MUST REMAIN UNCHANGED: \b osKernelSysTick shall be consistent in every CMSIS-RTOS.
 183:Middlewares/Third_Party/FreeRTOS/Source/CMSIS_RTOS/cmsis_os.c **** */
 184:Middlewares/Third_Party/FreeRTOS/Source/CMSIS_RTOS/cmsis_os.c **** uint32_t osKernelSysTick(void)
 185:Middlewares/Third_Party/FreeRTOS/Source/CMSIS_RTOS/cmsis_os.c **** {
 207              		.loc 1 185 1 is_stmt 1 view -0
 208              		.cfi_startproc
 209              		@ args = 0, pretend = 0, frame = 0
 210              		@ frame_needed = 0, uses_anonymous_args = 0
 211 0000 08B5     		push	{r3, lr}
 212              	.LCFI2:
 213              		.cfi_def_cfa_offset 8
 214              		.cfi_offset 3, -8
 215              		.cfi_offset 14, -4
 186:Middlewares/Third_Party/FreeRTOS/Source/CMSIS_RTOS/cmsis_os.c ****   if (inHandlerMode()) {
 216              		.loc 1 186 3 view .LVU41
 217              		.loc 1 186 7 is_stmt 0 view .LVU42
 218 0002 FFF7FEFF 		bl	inHandlerMode
 219              	.LVL12:
 220              		.loc 1 186 6 view .LVU43
 221 0006 10B1     		cbz	r0, .L16
 187:Middlewares/Third_Party/FreeRTOS/Source/CMSIS_RTOS/cmsis_os.c ****     return xTaskGetTickCountFromISR();
 222              		.loc 1 187 5 is_stmt 1 view .LVU44
 223              		.loc 1 187 12 is_stmt 0 view .LVU45
 224 0008 FFF7FEFF 		bl	xTaskGetTickCountFromISR
 225              	.LVL13:
 226              	.L15:
 188:Middlewares/Third_Party/FreeRTOS/Source/CMSIS_RTOS/cmsis_os.c ****   }
 189:Middlewares/Third_Party/FreeRTOS/Source/CMSIS_RTOS/cmsis_os.c ****   else {
 190:Middlewares/Third_Party/FreeRTOS/Source/CMSIS_RTOS/cmsis_os.c ****     return xTaskGetTickCount();
 191:Middlewares/Third_Party/FreeRTOS/Source/CMSIS_RTOS/cmsis_os.c ****   }
 192:Middlewares/Third_Party/FreeRTOS/Source/CMSIS_RTOS/cmsis_os.c **** }
 227              		.loc 1 192 1 view .LVU46
 228 000c 08BD     		pop	{r3, pc}
 229              	.L16:
 190:Middlewares/Third_Party/FreeRTOS/Source/CMSIS_RTOS/cmsis_os.c ****   }
 230              		.loc 1 190 5 is_stmt 1 view .LVU47
 190:Middlewares/Third_Party/FreeRTOS/Source/CMSIS_RTOS/cmsis_os.c ****   }
 231              		.loc 1 190 12 is_stmt 0 view .LVU48
ARM GAS  C:\Users\LJH\AppData\Local\Temp\ccdyqIDU.s 			page 12


 232 000e FFF7FEFF 		bl	xTaskGetTickCount
 233              	.LVL14:
 234 0012 FBE7     		b	.L15
 235              		.cfi_endproc
 236              	.LFE54:
 238              		.section	.text.osThreadCreate,"ax",%progbits
 239              		.align	1
 240              		.global	osThreadCreate
 241              		.syntax unified
 242              		.thumb
 243              		.thumb_func
 245              	osThreadCreate:
 246              	.LVL15:
 247              	.LFB55:
 193:Middlewares/Third_Party/FreeRTOS/Source/CMSIS_RTOS/cmsis_os.c **** #endif    // System Timer available
 194:Middlewares/Third_Party/FreeRTOS/Source/CMSIS_RTOS/cmsis_os.c **** /*********************** Thread Management *****************************/
 195:Middlewares/Third_Party/FreeRTOS/Source/CMSIS_RTOS/cmsis_os.c **** /**
 196:Middlewares/Third_Party/FreeRTOS/Source/CMSIS_RTOS/cmsis_os.c **** * @brief  Create a thread and add it to Active Threads and set it to state READY.
 197:Middlewares/Third_Party/FreeRTOS/Source/CMSIS_RTOS/cmsis_os.c **** * @param  thread_def    thread definition referenced with \ref osThread.
 198:Middlewares/Third_Party/FreeRTOS/Source/CMSIS_RTOS/cmsis_os.c **** * @param  argument      pointer that is passed to the thread function as start argument.
 199:Middlewares/Third_Party/FreeRTOS/Source/CMSIS_RTOS/cmsis_os.c **** * @retval thread ID for reference by other functions or NULL in case of error.
 200:Middlewares/Third_Party/FreeRTOS/Source/CMSIS_RTOS/cmsis_os.c **** * @note   MUST REMAIN UNCHANGED: \b osThreadCreate shall be consistent in every CMSIS-RTOS.
 201:Middlewares/Third_Party/FreeRTOS/Source/CMSIS_RTOS/cmsis_os.c **** */
 202:Middlewares/Third_Party/FreeRTOS/Source/CMSIS_RTOS/cmsis_os.c **** osThreadId osThreadCreate (const osThreadDef_t *thread_def, void *argument)
 203:Middlewares/Third_Party/FreeRTOS/Source/CMSIS_RTOS/cmsis_os.c **** {
 248              		.loc 1 203 1 is_stmt 1 view -0
 249              		.cfi_startproc
 250              		@ args = 0, pretend = 0, frame = 8
 251              		@ frame_needed = 0, uses_anonymous_args = 0
 252              		.loc 1 203 1 is_stmt 0 view .LVU50
 253 0000 2DE9F043 		push	{r4, r5, r6, r7, r8, r9, lr}
 254              	.LCFI3:
 255              		.cfi_def_cfa_offset 28
 256              		.cfi_offset 4, -28
 257              		.cfi_offset 5, -24
 258              		.cfi_offset 6, -20
 259              		.cfi_offset 7, -16
 260              		.cfi_offset 8, -12
 261              		.cfi_offset 9, -8
 262              		.cfi_offset 14, -4
 263 0004 87B0     		sub	sp, sp, #28
 264              	.LCFI4:
 265              		.cfi_def_cfa_offset 56
 266 0006 0446     		mov	r4, r0
 267 0008 0F46     		mov	r7, r1
 204:Middlewares/Third_Party/FreeRTOS/Source/CMSIS_RTOS/cmsis_os.c ****   TaskHandle_t handle;
 268              		.loc 1 204 3 is_stmt 1 view .LVU51
 205:Middlewares/Third_Party/FreeRTOS/Source/CMSIS_RTOS/cmsis_os.c ****   
 206:Middlewares/Third_Party/FreeRTOS/Source/CMSIS_RTOS/cmsis_os.c **** #if( configSUPPORT_STATIC_ALLOCATION == 1 ) &&  ( configSUPPORT_DYNAMIC_ALLOCATION == 1 )
 207:Middlewares/Third_Party/FreeRTOS/Source/CMSIS_RTOS/cmsis_os.c ****   if((thread_def->buffer != NULL) && (thread_def->controlblock != NULL)) {
 269              		.loc 1 207 3 view .LVU52
 270              		.loc 1 207 17 is_stmt 0 view .LVU53
 271 000a 4569     		ldr	r5, [r0, #20]
 272              		.loc 1 207 5 view .LVU54
 273 000c BDB1     		cbz	r5, .L20
 274              		.loc 1 207 49 discriminator 1 view .LVU55
 275 000e 8669     		ldr	r6, [r0, #24]
ARM GAS  C:\Users\LJH\AppData\Local\Temp\ccdyqIDU.s 			page 13


 276              		.loc 1 207 35 discriminator 1 view .LVU56
 277 0010 AEB1     		cbz	r6, .L20
 208:Middlewares/Third_Party/FreeRTOS/Source/CMSIS_RTOS/cmsis_os.c ****     handle = xTaskCreateStatic((TaskFunction_t)thread_def->pthread,(const portCHAR *)thread_def->na
 278              		.loc 1 208 5 is_stmt 1 view .LVU57
 279              		.loc 1 208 58 is_stmt 0 view .LVU58
 280 0012 D0F80480 		ldr	r8, [r0, #4]
 281              		.loc 1 208 96 view .LVU59
 282 0016 D0F80090 		ldr	r9, [r0]
 283              		.loc 1 208 14 view .LVU60
 284 001a B0F90800 		ldrsh	r0, [r0, #8]
 285              	.LVL16:
 286              		.loc 1 208 14 view .LVU61
 287 001e FFF7FEFF 		bl	makeFreeRtosPriority
 288              	.LVL17:
 289              		.loc 1 208 14 view .LVU62
 290 0022 0296     		str	r6, [sp, #8]
 291 0024 0195     		str	r5, [sp, #4]
 292 0026 0090     		str	r0, [sp]
 293 0028 3B46     		mov	r3, r7
 294 002a 2269     		ldr	r2, [r4, #16]
 295 002c 4946     		mov	r1, r9
 296 002e 4046     		mov	r0, r8
 297 0030 FFF7FEFF 		bl	xTaskCreateStatic
 298              	.LVL18:
 299              		.loc 1 208 12 view .LVU63
 300 0034 0590     		str	r0, [sp, #20]
 301              	.L21:
 209:Middlewares/Third_Party/FreeRTOS/Source/CMSIS_RTOS/cmsis_os.c ****               thread_def->stacksize, argument, makeFreeRtosPriority(thread_def->tpriority),
 210:Middlewares/Third_Party/FreeRTOS/Source/CMSIS_RTOS/cmsis_os.c ****               thread_def->buffer, thread_def->controlblock);
 211:Middlewares/Third_Party/FreeRTOS/Source/CMSIS_RTOS/cmsis_os.c ****   }
 212:Middlewares/Third_Party/FreeRTOS/Source/CMSIS_RTOS/cmsis_os.c ****   else {
 213:Middlewares/Third_Party/FreeRTOS/Source/CMSIS_RTOS/cmsis_os.c ****     if (xTaskCreate((TaskFunction_t)thread_def->pthread,(const portCHAR *)thread_def->name,
 214:Middlewares/Third_Party/FreeRTOS/Source/CMSIS_RTOS/cmsis_os.c ****               thread_def->stacksize, argument, makeFreeRtosPriority(thread_def->tpriority),
 215:Middlewares/Third_Party/FreeRTOS/Source/CMSIS_RTOS/cmsis_os.c ****               &handle) != pdPASS)  {
 216:Middlewares/Third_Party/FreeRTOS/Source/CMSIS_RTOS/cmsis_os.c ****       return NULL;
 217:Middlewares/Third_Party/FreeRTOS/Source/CMSIS_RTOS/cmsis_os.c ****     } 
 218:Middlewares/Third_Party/FreeRTOS/Source/CMSIS_RTOS/cmsis_os.c ****   }
 219:Middlewares/Third_Party/FreeRTOS/Source/CMSIS_RTOS/cmsis_os.c **** #elif( configSUPPORT_STATIC_ALLOCATION == 1 )
 220:Middlewares/Third_Party/FreeRTOS/Source/CMSIS_RTOS/cmsis_os.c **** 
 221:Middlewares/Third_Party/FreeRTOS/Source/CMSIS_RTOS/cmsis_os.c ****     handle = xTaskCreateStatic((TaskFunction_t)thread_def->pthread,(const portCHAR *)thread_def->na
 222:Middlewares/Third_Party/FreeRTOS/Source/CMSIS_RTOS/cmsis_os.c ****               thread_def->stacksize, argument, makeFreeRtosPriority(thread_def->tpriority),
 223:Middlewares/Third_Party/FreeRTOS/Source/CMSIS_RTOS/cmsis_os.c ****               thread_def->buffer, thread_def->controlblock);
 224:Middlewares/Third_Party/FreeRTOS/Source/CMSIS_RTOS/cmsis_os.c **** #else
 225:Middlewares/Third_Party/FreeRTOS/Source/CMSIS_RTOS/cmsis_os.c ****   if (xTaskCreate((TaskFunction_t)thread_def->pthread,(const portCHAR *)thread_def->name,
 226:Middlewares/Third_Party/FreeRTOS/Source/CMSIS_RTOS/cmsis_os.c ****                    thread_def->stacksize, argument, makeFreeRtosPriority(thread_def->tpriority),
 227:Middlewares/Third_Party/FreeRTOS/Source/CMSIS_RTOS/cmsis_os.c ****                    &handle) != pdPASS)  {
 228:Middlewares/Third_Party/FreeRTOS/Source/CMSIS_RTOS/cmsis_os.c ****     return NULL;
 229:Middlewares/Third_Party/FreeRTOS/Source/CMSIS_RTOS/cmsis_os.c ****   }     
 230:Middlewares/Third_Party/FreeRTOS/Source/CMSIS_RTOS/cmsis_os.c **** #endif
 231:Middlewares/Third_Party/FreeRTOS/Source/CMSIS_RTOS/cmsis_os.c ****   
 232:Middlewares/Third_Party/FreeRTOS/Source/CMSIS_RTOS/cmsis_os.c ****   return handle;
 302              		.loc 1 232 3 is_stmt 1 view .LVU64
 303              		.loc 1 232 10 is_stmt 0 view .LVU65
 304 0036 0598     		ldr	r0, [sp, #20]
 305              	.L19:
 233:Middlewares/Third_Party/FreeRTOS/Source/CMSIS_RTOS/cmsis_os.c **** }
 306              		.loc 1 233 1 view .LVU66
ARM GAS  C:\Users\LJH\AppData\Local\Temp\ccdyqIDU.s 			page 14


 307 0038 07B0     		add	sp, sp, #28
 308              	.LCFI5:
 309              		.cfi_remember_state
 310              		.cfi_def_cfa_offset 28
 311              		@ sp needed
 312 003a BDE8F083 		pop	{r4, r5, r6, r7, r8, r9, pc}
 313              	.LVL19:
 314              	.L20:
 315              	.LCFI6:
 316              		.cfi_restore_state
 213:Middlewares/Third_Party/FreeRTOS/Source/CMSIS_RTOS/cmsis_os.c ****               thread_def->stacksize, argument, makeFreeRtosPriority(thread_def->tpriority),
 317              		.loc 1 213 5 is_stmt 1 view .LVU67
 213:Middlewares/Third_Party/FreeRTOS/Source/CMSIS_RTOS/cmsis_os.c ****               thread_def->stacksize, argument, makeFreeRtosPriority(thread_def->tpriority),
 318              		.loc 1 213 47 is_stmt 0 view .LVU68
 319 003e 6568     		ldr	r5, [r4, #4]
 213:Middlewares/Third_Party/FreeRTOS/Source/CMSIS_RTOS/cmsis_os.c ****               thread_def->stacksize, argument, makeFreeRtosPriority(thread_def->tpriority),
 320              		.loc 1 213 85 view .LVU69
 321 0040 2668     		ldr	r6, [r4]
 214:Middlewares/Third_Party/FreeRTOS/Source/CMSIS_RTOS/cmsis_os.c ****               &handle) != pdPASS)  {
 322              		.loc 1 214 25 view .LVU70
 323 0042 D4F81080 		ldr	r8, [r4, #16]
 213:Middlewares/Third_Party/FreeRTOS/Source/CMSIS_RTOS/cmsis_os.c ****               thread_def->stacksize, argument, makeFreeRtosPriority(thread_def->tpriority),
 324              		.loc 1 213 9 view .LVU71
 325 0046 B4F90800 		ldrsh	r0, [r4, #8]
 326              	.LVL20:
 213:Middlewares/Third_Party/FreeRTOS/Source/CMSIS_RTOS/cmsis_os.c ****               thread_def->stacksize, argument, makeFreeRtosPriority(thread_def->tpriority),
 327              		.loc 1 213 9 view .LVU72
 328 004a FFF7FEFF 		bl	makeFreeRtosPriority
 329              	.LVL21:
 213:Middlewares/Third_Party/FreeRTOS/Source/CMSIS_RTOS/cmsis_os.c ****               thread_def->stacksize, argument, makeFreeRtosPriority(thread_def->tpriority),
 330              		.loc 1 213 9 view .LVU73
 331 004e 05AB     		add	r3, sp, #20
 332 0050 0193     		str	r3, [sp, #4]
 333 0052 0090     		str	r0, [sp]
 334 0054 3B46     		mov	r3, r7
 335 0056 1FFA88F2 		uxth	r2, r8
 336 005a 3146     		mov	r1, r6
 337 005c 2846     		mov	r0, r5
 338 005e FFF7FEFF 		bl	xTaskCreate
 339              	.LVL22:
 213:Middlewares/Third_Party/FreeRTOS/Source/CMSIS_RTOS/cmsis_os.c ****               thread_def->stacksize, argument, makeFreeRtosPriority(thread_def->tpriority),
 340              		.loc 1 213 8 view .LVU74
 341 0062 0128     		cmp	r0, #1
 342 0064 E7D0     		beq	.L21
 216:Middlewares/Third_Party/FreeRTOS/Source/CMSIS_RTOS/cmsis_os.c ****     } 
 343              		.loc 1 216 14 view .LVU75
 344 0066 0020     		movs	r0, #0
 345 0068 E6E7     		b	.L19
 346              		.cfi_endproc
 347              	.LFE55:
 349              		.section	.text.osThreadGetId,"ax",%progbits
 350              		.align	1
 351              		.global	osThreadGetId
 352              		.syntax unified
 353              		.thumb
 354              		.thumb_func
 356              	osThreadGetId:
ARM GAS  C:\Users\LJH\AppData\Local\Temp\ccdyqIDU.s 			page 15


 357              	.LFB56:
 234:Middlewares/Third_Party/FreeRTOS/Source/CMSIS_RTOS/cmsis_os.c **** 
 235:Middlewares/Third_Party/FreeRTOS/Source/CMSIS_RTOS/cmsis_os.c **** /**
 236:Middlewares/Third_Party/FreeRTOS/Source/CMSIS_RTOS/cmsis_os.c **** * @brief  Return the thread ID of the current running thread.
 237:Middlewares/Third_Party/FreeRTOS/Source/CMSIS_RTOS/cmsis_os.c **** * @retval thread ID for reference by other functions or NULL in case of error.
 238:Middlewares/Third_Party/FreeRTOS/Source/CMSIS_RTOS/cmsis_os.c **** * @note   MUST REMAIN UNCHANGED: \b osThreadGetId shall be consistent in every CMSIS-RTOS.
 239:Middlewares/Third_Party/FreeRTOS/Source/CMSIS_RTOS/cmsis_os.c **** */
 240:Middlewares/Third_Party/FreeRTOS/Source/CMSIS_RTOS/cmsis_os.c **** osThreadId osThreadGetId (void)
 241:Middlewares/Third_Party/FreeRTOS/Source/CMSIS_RTOS/cmsis_os.c **** {
 358              		.loc 1 241 1 is_stmt 1 view -0
 359              		.cfi_startproc
 360              		@ args = 0, pretend = 0, frame = 0
 361              		@ frame_needed = 0, uses_anonymous_args = 0
 362 0000 08B5     		push	{r3, lr}
 363              	.LCFI7:
 364              		.cfi_def_cfa_offset 8
 365              		.cfi_offset 3, -8
 366              		.cfi_offset 14, -4
 242:Middlewares/Third_Party/FreeRTOS/Source/CMSIS_RTOS/cmsis_os.c **** #if ( ( INCLUDE_xTaskGetCurrentTaskHandle == 1 ) || ( configUSE_MUTEXES == 1 ) )
 243:Middlewares/Third_Party/FreeRTOS/Source/CMSIS_RTOS/cmsis_os.c ****   return xTaskGetCurrentTaskHandle();
 367              		.loc 1 243 3 view .LVU77
 368              		.loc 1 243 10 is_stmt 0 view .LVU78
 369 0002 FFF7FEFF 		bl	xTaskGetCurrentTaskHandle
 370              	.LVL23:
 244:Middlewares/Third_Party/FreeRTOS/Source/CMSIS_RTOS/cmsis_os.c **** #else
 245:Middlewares/Third_Party/FreeRTOS/Source/CMSIS_RTOS/cmsis_os.c **** 	return NULL;
 246:Middlewares/Third_Party/FreeRTOS/Source/CMSIS_RTOS/cmsis_os.c **** #endif
 247:Middlewares/Third_Party/FreeRTOS/Source/CMSIS_RTOS/cmsis_os.c **** }
 371              		.loc 1 247 1 view .LVU79
 372 0006 08BD     		pop	{r3, pc}
 373              		.cfi_endproc
 374              	.LFE56:
 376              		.section	.text.osThreadTerminate,"ax",%progbits
 377              		.align	1
 378              		.global	osThreadTerminate
 379              		.syntax unified
 380              		.thumb
 381              		.thumb_func
 383              	osThreadTerminate:
 384              	.LVL24:
 385              	.LFB57:
 248:Middlewares/Third_Party/FreeRTOS/Source/CMSIS_RTOS/cmsis_os.c **** 
 249:Middlewares/Third_Party/FreeRTOS/Source/CMSIS_RTOS/cmsis_os.c **** /**
 250:Middlewares/Third_Party/FreeRTOS/Source/CMSIS_RTOS/cmsis_os.c **** * @brief  Terminate execution of a thread and remove it from Active Threads.
 251:Middlewares/Third_Party/FreeRTOS/Source/CMSIS_RTOS/cmsis_os.c **** * @param   thread_id   thread ID obtained by \ref osThreadCreate or \ref osThreadGetId.
 252:Middlewares/Third_Party/FreeRTOS/Source/CMSIS_RTOS/cmsis_os.c **** * @retval  status code that indicates the execution status of the function.
 253:Middlewares/Third_Party/FreeRTOS/Source/CMSIS_RTOS/cmsis_os.c **** * @note   MUST REMAIN UNCHANGED: \b osThreadTerminate shall be consistent in every CMSIS-RTOS.
 254:Middlewares/Third_Party/FreeRTOS/Source/CMSIS_RTOS/cmsis_os.c **** */
 255:Middlewares/Third_Party/FreeRTOS/Source/CMSIS_RTOS/cmsis_os.c **** osStatus osThreadTerminate (osThreadId thread_id)
 256:Middlewares/Third_Party/FreeRTOS/Source/CMSIS_RTOS/cmsis_os.c **** {
 386              		.loc 1 256 1 is_stmt 1 view -0
 387              		.cfi_startproc
 388              		@ args = 0, pretend = 0, frame = 0
 389              		@ frame_needed = 0, uses_anonymous_args = 0
 390              		.loc 1 256 1 is_stmt 0 view .LVU81
 391 0000 08B5     		push	{r3, lr}
 392              	.LCFI8:
ARM GAS  C:\Users\LJH\AppData\Local\Temp\ccdyqIDU.s 			page 16


 393              		.cfi_def_cfa_offset 8
 394              		.cfi_offset 3, -8
 395              		.cfi_offset 14, -4
 257:Middlewares/Third_Party/FreeRTOS/Source/CMSIS_RTOS/cmsis_os.c **** #if (INCLUDE_vTaskDelete == 1)
 258:Middlewares/Third_Party/FreeRTOS/Source/CMSIS_RTOS/cmsis_os.c ****   vTaskDelete(thread_id);
 396              		.loc 1 258 3 is_stmt 1 view .LVU82
 397 0002 FFF7FEFF 		bl	vTaskDelete
 398              	.LVL25:
 259:Middlewares/Third_Party/FreeRTOS/Source/CMSIS_RTOS/cmsis_os.c ****   return osOK;
 399              		.loc 1 259 3 view .LVU83
 260:Middlewares/Third_Party/FreeRTOS/Source/CMSIS_RTOS/cmsis_os.c **** #else
 261:Middlewares/Third_Party/FreeRTOS/Source/CMSIS_RTOS/cmsis_os.c ****   return osErrorOS;
 262:Middlewares/Third_Party/FreeRTOS/Source/CMSIS_RTOS/cmsis_os.c **** #endif
 263:Middlewares/Third_Party/FreeRTOS/Source/CMSIS_RTOS/cmsis_os.c **** }
 400              		.loc 1 263 1 is_stmt 0 view .LVU84
 401 0006 0020     		movs	r0, #0
 402 0008 08BD     		pop	{r3, pc}
 403              		.cfi_endproc
 404              	.LFE57:
 406              		.section	.text.osThreadYield,"ax",%progbits
 407              		.align	1
 408              		.global	osThreadYield
 409              		.syntax unified
 410              		.thumb
 411              		.thumb_func
 413              	osThreadYield:
 414              	.LFB58:
 264:Middlewares/Third_Party/FreeRTOS/Source/CMSIS_RTOS/cmsis_os.c **** 
 265:Middlewares/Third_Party/FreeRTOS/Source/CMSIS_RTOS/cmsis_os.c **** /**
 266:Middlewares/Third_Party/FreeRTOS/Source/CMSIS_RTOS/cmsis_os.c **** * @brief  Pass control to next thread that is in state \b READY.
 267:Middlewares/Third_Party/FreeRTOS/Source/CMSIS_RTOS/cmsis_os.c **** * @retval status code that indicates the execution status of the function.
 268:Middlewares/Third_Party/FreeRTOS/Source/CMSIS_RTOS/cmsis_os.c **** * @note   MUST REMAIN UNCHANGED: \b osThreadYield shall be consistent in every CMSIS-RTOS.
 269:Middlewares/Third_Party/FreeRTOS/Source/CMSIS_RTOS/cmsis_os.c **** */
 270:Middlewares/Third_Party/FreeRTOS/Source/CMSIS_RTOS/cmsis_os.c **** osStatus osThreadYield (void)
 271:Middlewares/Third_Party/FreeRTOS/Source/CMSIS_RTOS/cmsis_os.c **** {
 415              		.loc 1 271 1 is_stmt 1 view -0
 416              		.cfi_startproc
 417              		@ args = 0, pretend = 0, frame = 0
 418              		@ frame_needed = 0, uses_anonymous_args = 0
 419              		@ link register save eliminated.
 272:Middlewares/Third_Party/FreeRTOS/Source/CMSIS_RTOS/cmsis_os.c ****   taskYIELD();
 420              		.loc 1 272 3 view .LVU86
 421 0000 4FF0E023 		mov	r3, #-536813568
 422 0004 4FF08052 		mov	r2, #268435456
 423 0008 C3F8042D 		str	r2, [r3, #3332]
 424              		.loc 1 272 3 view .LVU87
 425              		.syntax unified
 426              	@ 272 "Middlewares/Third_Party/FreeRTOS/Source/CMSIS_RTOS/cmsis_os.c" 1
 427 000c BFF34F8F 		dsb
 428              	@ 0 "" 2
 429              		.loc 1 272 3 view .LVU88
 430              	@ 272 "Middlewares/Third_Party/FreeRTOS/Source/CMSIS_RTOS/cmsis_os.c" 1
 431 0010 BFF36F8F 		isb
 432              	@ 0 "" 2
 433              		.loc 1 272 14 view .LVU89
 273:Middlewares/Third_Party/FreeRTOS/Source/CMSIS_RTOS/cmsis_os.c ****   
 274:Middlewares/Third_Party/FreeRTOS/Source/CMSIS_RTOS/cmsis_os.c ****   return osOK;
ARM GAS  C:\Users\LJH\AppData\Local\Temp\ccdyqIDU.s 			page 17


 434              		.loc 1 274 3 view .LVU90
 275:Middlewares/Third_Party/FreeRTOS/Source/CMSIS_RTOS/cmsis_os.c **** }
 435              		.loc 1 275 1 is_stmt 0 view .LVU91
 436              		.thumb
 437              		.syntax unified
 438 0014 0020     		movs	r0, #0
 439 0016 7047     		bx	lr
 440              		.cfi_endproc
 441              	.LFE58:
 443              		.section	.text.osThreadSetPriority,"ax",%progbits
 444              		.align	1
 445              		.global	osThreadSetPriority
 446              		.syntax unified
 447              		.thumb
 448              		.thumb_func
 450              	osThreadSetPriority:
 451              	.LVL26:
 452              	.LFB59:
 276:Middlewares/Third_Party/FreeRTOS/Source/CMSIS_RTOS/cmsis_os.c **** 
 277:Middlewares/Third_Party/FreeRTOS/Source/CMSIS_RTOS/cmsis_os.c **** /**
 278:Middlewares/Third_Party/FreeRTOS/Source/CMSIS_RTOS/cmsis_os.c **** * @brief   Change priority of an active thread.
 279:Middlewares/Third_Party/FreeRTOS/Source/CMSIS_RTOS/cmsis_os.c **** * @param   thread_id     thread ID obtained by \ref osThreadCreate or \ref osThreadGetId.
 280:Middlewares/Third_Party/FreeRTOS/Source/CMSIS_RTOS/cmsis_os.c **** * @param   priority      new priority value for the thread function.
 281:Middlewares/Third_Party/FreeRTOS/Source/CMSIS_RTOS/cmsis_os.c **** * @retval  status code that indicates the execution status of the function.
 282:Middlewares/Third_Party/FreeRTOS/Source/CMSIS_RTOS/cmsis_os.c **** * @note   MUST REMAIN UNCHANGED: \b osThreadSetPriority shall be consistent in every CMSIS-RTOS.
 283:Middlewares/Third_Party/FreeRTOS/Source/CMSIS_RTOS/cmsis_os.c **** */
 284:Middlewares/Third_Party/FreeRTOS/Source/CMSIS_RTOS/cmsis_os.c **** osStatus osThreadSetPriority (osThreadId thread_id, osPriority priority)
 285:Middlewares/Third_Party/FreeRTOS/Source/CMSIS_RTOS/cmsis_os.c **** {
 453              		.loc 1 285 1 is_stmt 1 view -0
 454              		.cfi_startproc
 455              		@ args = 0, pretend = 0, frame = 0
 456              		@ frame_needed = 0, uses_anonymous_args = 0
 457              		.loc 1 285 1 is_stmt 0 view .LVU93
 458 0000 10B5     		push	{r4, lr}
 459              	.LCFI9:
 460              		.cfi_def_cfa_offset 8
 461              		.cfi_offset 4, -8
 462              		.cfi_offset 14, -4
 463 0002 0446     		mov	r4, r0
 286:Middlewares/Third_Party/FreeRTOS/Source/CMSIS_RTOS/cmsis_os.c **** #if (INCLUDE_vTaskPrioritySet == 1)
 287:Middlewares/Third_Party/FreeRTOS/Source/CMSIS_RTOS/cmsis_os.c ****   vTaskPrioritySet(thread_id, makeFreeRtosPriority(priority));
 464              		.loc 1 287 3 is_stmt 1 view .LVU94
 465 0004 0846     		mov	r0, r1
 466              	.LVL27:
 467              		.loc 1 287 3 is_stmt 0 view .LVU95
 468 0006 FFF7FEFF 		bl	makeFreeRtosPriority
 469              	.LVL28:
 470              		.loc 1 287 3 view .LVU96
 471 000a 0146     		mov	r1, r0
 472 000c 2046     		mov	r0, r4
 473 000e FFF7FEFF 		bl	vTaskPrioritySet
 474              	.LVL29:
 288:Middlewares/Third_Party/FreeRTOS/Source/CMSIS_RTOS/cmsis_os.c ****   return osOK;
 475              		.loc 1 288 3 is_stmt 1 view .LVU97
 289:Middlewares/Third_Party/FreeRTOS/Source/CMSIS_RTOS/cmsis_os.c **** #else
 290:Middlewares/Third_Party/FreeRTOS/Source/CMSIS_RTOS/cmsis_os.c ****   return osErrorOS;
 291:Middlewares/Third_Party/FreeRTOS/Source/CMSIS_RTOS/cmsis_os.c **** #endif
ARM GAS  C:\Users\LJH\AppData\Local\Temp\ccdyqIDU.s 			page 18


 292:Middlewares/Third_Party/FreeRTOS/Source/CMSIS_RTOS/cmsis_os.c **** }
 476              		.loc 1 292 1 is_stmt 0 view .LVU98
 477 0012 0020     		movs	r0, #0
 478 0014 10BD     		pop	{r4, pc}
 479              		.loc 1 292 1 view .LVU99
 480              		.cfi_endproc
 481              	.LFE59:
 483              		.section	.text.osThreadGetPriority,"ax",%progbits
 484              		.align	1
 485              		.global	osThreadGetPriority
 486              		.syntax unified
 487              		.thumb
 488              		.thumb_func
 490              	osThreadGetPriority:
 491              	.LVL30:
 492              	.LFB60:
 293:Middlewares/Third_Party/FreeRTOS/Source/CMSIS_RTOS/cmsis_os.c **** 
 294:Middlewares/Third_Party/FreeRTOS/Source/CMSIS_RTOS/cmsis_os.c **** /**
 295:Middlewares/Third_Party/FreeRTOS/Source/CMSIS_RTOS/cmsis_os.c **** * @brief   Get current priority of an active thread.
 296:Middlewares/Third_Party/FreeRTOS/Source/CMSIS_RTOS/cmsis_os.c **** * @param   thread_id     thread ID obtained by \ref osThreadCreate or \ref osThreadGetId.
 297:Middlewares/Third_Party/FreeRTOS/Source/CMSIS_RTOS/cmsis_os.c **** * @retval  current priority value of the thread function.
 298:Middlewares/Third_Party/FreeRTOS/Source/CMSIS_RTOS/cmsis_os.c **** * @note   MUST REMAIN UNCHANGED: \b osThreadGetPriority shall be consistent in every CMSIS-RTOS.
 299:Middlewares/Third_Party/FreeRTOS/Source/CMSIS_RTOS/cmsis_os.c **** */
 300:Middlewares/Third_Party/FreeRTOS/Source/CMSIS_RTOS/cmsis_os.c **** osPriority osThreadGetPriority (osThreadId thread_id)
 301:Middlewares/Third_Party/FreeRTOS/Source/CMSIS_RTOS/cmsis_os.c **** {
 493              		.loc 1 301 1 is_stmt 1 view -0
 494              		.cfi_startproc
 495              		@ args = 0, pretend = 0, frame = 0
 496              		@ frame_needed = 0, uses_anonymous_args = 0
 497              		.loc 1 301 1 is_stmt 0 view .LVU101
 498 0000 10B5     		push	{r4, lr}
 499              	.LCFI10:
 500              		.cfi_def_cfa_offset 8
 501              		.cfi_offset 4, -8
 502              		.cfi_offset 14, -4
 503 0002 0446     		mov	r4, r0
 302:Middlewares/Third_Party/FreeRTOS/Source/CMSIS_RTOS/cmsis_os.c **** #if (INCLUDE_uxTaskPriorityGet == 1)
 303:Middlewares/Third_Party/FreeRTOS/Source/CMSIS_RTOS/cmsis_os.c ****   if (inHandlerMode())
 504              		.loc 1 303 3 is_stmt 1 view .LVU102
 505              		.loc 1 303 7 is_stmt 0 view .LVU103
 506 0004 FFF7FEFF 		bl	inHandlerMode
 507              	.LVL31:
 508              		.loc 1 303 6 view .LVU104
 509 0008 28B1     		cbz	r0, .L33
 304:Middlewares/Third_Party/FreeRTOS/Source/CMSIS_RTOS/cmsis_os.c ****   {
 305:Middlewares/Third_Party/FreeRTOS/Source/CMSIS_RTOS/cmsis_os.c ****     return makeCmsisPriority(uxTaskPriorityGetFromISR(thread_id));  
 510              		.loc 1 305 5 is_stmt 1 view .LVU105
 511              		.loc 1 305 12 is_stmt 0 view .LVU106
 512 000a 2046     		mov	r0, r4
 513 000c FFF7FEFF 		bl	uxTaskPriorityGetFromISR
 514              	.LVL32:
 515 0010 FFF7FEFF 		bl	makeCmsisPriority
 516              	.LVL33:
 517              	.L34:
 306:Middlewares/Third_Party/FreeRTOS/Source/CMSIS_RTOS/cmsis_os.c ****   }
 307:Middlewares/Third_Party/FreeRTOS/Source/CMSIS_RTOS/cmsis_os.c ****   else
 308:Middlewares/Third_Party/FreeRTOS/Source/CMSIS_RTOS/cmsis_os.c ****   {  
ARM GAS  C:\Users\LJH\AppData\Local\Temp\ccdyqIDU.s 			page 19


 309:Middlewares/Third_Party/FreeRTOS/Source/CMSIS_RTOS/cmsis_os.c ****     return makeCmsisPriority(uxTaskPriorityGet(thread_id));
 310:Middlewares/Third_Party/FreeRTOS/Source/CMSIS_RTOS/cmsis_os.c ****   }
 311:Middlewares/Third_Party/FreeRTOS/Source/CMSIS_RTOS/cmsis_os.c **** #else
 312:Middlewares/Third_Party/FreeRTOS/Source/CMSIS_RTOS/cmsis_os.c ****   return osPriorityError;
 313:Middlewares/Third_Party/FreeRTOS/Source/CMSIS_RTOS/cmsis_os.c **** #endif
 314:Middlewares/Third_Party/FreeRTOS/Source/CMSIS_RTOS/cmsis_os.c **** }
 518              		.loc 1 314 1 view .LVU107
 519 0014 10BD     		pop	{r4, pc}
 520              	.LVL34:
 521              	.L33:
 309:Middlewares/Third_Party/FreeRTOS/Source/CMSIS_RTOS/cmsis_os.c ****   }
 522              		.loc 1 309 5 is_stmt 1 view .LVU108
 309:Middlewares/Third_Party/FreeRTOS/Source/CMSIS_RTOS/cmsis_os.c ****   }
 523              		.loc 1 309 12 is_stmt 0 view .LVU109
 524 0016 2046     		mov	r0, r4
 525 0018 FFF7FEFF 		bl	uxTaskPriorityGet
 526              	.LVL35:
 527 001c FFF7FEFF 		bl	makeCmsisPriority
 528              	.LVL36:
 529 0020 F8E7     		b	.L34
 530              		.cfi_endproc
 531              	.LFE60:
 533              		.section	.text.osDelay,"ax",%progbits
 534              		.align	1
 535              		.global	osDelay
 536              		.syntax unified
 537              		.thumb
 538              		.thumb_func
 540              	osDelay:
 541              	.LVL37:
 542              	.LFB61:
 315:Middlewares/Third_Party/FreeRTOS/Source/CMSIS_RTOS/cmsis_os.c **** 
 316:Middlewares/Third_Party/FreeRTOS/Source/CMSIS_RTOS/cmsis_os.c **** /*********************** Generic Wait Functions *******************************/
 317:Middlewares/Third_Party/FreeRTOS/Source/CMSIS_RTOS/cmsis_os.c **** /**
 318:Middlewares/Third_Party/FreeRTOS/Source/CMSIS_RTOS/cmsis_os.c **** * @brief   Wait for Timeout (Time Delay)
 319:Middlewares/Third_Party/FreeRTOS/Source/CMSIS_RTOS/cmsis_os.c **** * @param   millisec      time delay value
 320:Middlewares/Third_Party/FreeRTOS/Source/CMSIS_RTOS/cmsis_os.c **** * @retval  status code that indicates the execution status of the function.
 321:Middlewares/Third_Party/FreeRTOS/Source/CMSIS_RTOS/cmsis_os.c **** */
 322:Middlewares/Third_Party/FreeRTOS/Source/CMSIS_RTOS/cmsis_os.c **** osStatus osDelay (uint32_t millisec)
 323:Middlewares/Third_Party/FreeRTOS/Source/CMSIS_RTOS/cmsis_os.c **** {
 543              		.loc 1 323 1 is_stmt 1 view -0
 544              		.cfi_startproc
 545              		@ args = 0, pretend = 0, frame = 0
 546              		@ frame_needed = 0, uses_anonymous_args = 0
 547              		.loc 1 323 1 is_stmt 0 view .LVU111
 548 0000 08B5     		push	{r3, lr}
 549              	.LCFI11:
 550              		.cfi_def_cfa_offset 8
 551              		.cfi_offset 3, -8
 552              		.cfi_offset 14, -4
 324:Middlewares/Third_Party/FreeRTOS/Source/CMSIS_RTOS/cmsis_os.c **** #if INCLUDE_vTaskDelay
 325:Middlewares/Third_Party/FreeRTOS/Source/CMSIS_RTOS/cmsis_os.c ****   TickType_t ticks = millisec / portTICK_PERIOD_MS;
 553              		.loc 1 325 3 is_stmt 1 view .LVU112
 554              	.LVL38:
 326:Middlewares/Third_Party/FreeRTOS/Source/CMSIS_RTOS/cmsis_os.c ****   
 327:Middlewares/Third_Party/FreeRTOS/Source/CMSIS_RTOS/cmsis_os.c ****   vTaskDelay(ticks ? ticks : 1);          /* Minimum delay = 1 tick */
 555              		.loc 1 327 3 view .LVU113
ARM GAS  C:\Users\LJH\AppData\Local\Temp\ccdyqIDU.s 			page 20


 556 0002 00B9     		cbnz	r0, .L37
 557 0004 0120     		movs	r0, #1
 558              	.LVL39:
 559              	.L37:
 560              		.loc 1 327 3 is_stmt 0 discriminator 4 view .LVU114
 561 0006 FFF7FEFF 		bl	vTaskDelay
 562              	.LVL40:
 328:Middlewares/Third_Party/FreeRTOS/Source/CMSIS_RTOS/cmsis_os.c ****   
 329:Middlewares/Third_Party/FreeRTOS/Source/CMSIS_RTOS/cmsis_os.c ****   return osOK;
 563              		.loc 1 329 3 is_stmt 1 discriminator 4 view .LVU115
 330:Middlewares/Third_Party/FreeRTOS/Source/CMSIS_RTOS/cmsis_os.c **** #else
 331:Middlewares/Third_Party/FreeRTOS/Source/CMSIS_RTOS/cmsis_os.c ****   (void) millisec;
 332:Middlewares/Third_Party/FreeRTOS/Source/CMSIS_RTOS/cmsis_os.c ****   
 333:Middlewares/Third_Party/FreeRTOS/Source/CMSIS_RTOS/cmsis_os.c ****   return osErrorResource;
 334:Middlewares/Third_Party/FreeRTOS/Source/CMSIS_RTOS/cmsis_os.c **** #endif
 335:Middlewares/Third_Party/FreeRTOS/Source/CMSIS_RTOS/cmsis_os.c **** }
 564              		.loc 1 335 1 is_stmt 0 discriminator 4 view .LVU116
 565 000a 0020     		movs	r0, #0
 566 000c 08BD     		pop	{r3, pc}
 567              		.cfi_endproc
 568              	.LFE61:
 570              		.section	.text.osTimerCreate,"ax",%progbits
 571              		.align	1
 572              		.global	osTimerCreate
 573              		.syntax unified
 574              		.thumb
 575              		.thumb_func
 577              	osTimerCreate:
 578              	.LVL41:
 579              	.LFB62:
 336:Middlewares/Third_Party/FreeRTOS/Source/CMSIS_RTOS/cmsis_os.c **** 
 337:Middlewares/Third_Party/FreeRTOS/Source/CMSIS_RTOS/cmsis_os.c **** #if (defined (osFeature_Wait)  &&  (osFeature_Wait != 0)) /* Generic Wait available */
 338:Middlewares/Third_Party/FreeRTOS/Source/CMSIS_RTOS/cmsis_os.c **** /**
 339:Middlewares/Third_Party/FreeRTOS/Source/CMSIS_RTOS/cmsis_os.c **** * @brief  Wait for Signal, Message, Mail, or Timeout
 340:Middlewares/Third_Party/FreeRTOS/Source/CMSIS_RTOS/cmsis_os.c **** * @param   millisec  timeout value or 0 in case of no time-out
 341:Middlewares/Third_Party/FreeRTOS/Source/CMSIS_RTOS/cmsis_os.c **** * @retval  event that contains signal, message, or mail information or error code.
 342:Middlewares/Third_Party/FreeRTOS/Source/CMSIS_RTOS/cmsis_os.c **** * @note   MUST REMAIN UNCHANGED: \b osWait shall be consistent in every CMSIS-RTOS.
 343:Middlewares/Third_Party/FreeRTOS/Source/CMSIS_RTOS/cmsis_os.c **** */
 344:Middlewares/Third_Party/FreeRTOS/Source/CMSIS_RTOS/cmsis_os.c **** osEvent osWait (uint32_t millisec);
 345:Middlewares/Third_Party/FreeRTOS/Source/CMSIS_RTOS/cmsis_os.c **** 
 346:Middlewares/Third_Party/FreeRTOS/Source/CMSIS_RTOS/cmsis_os.c **** #endif  /* Generic Wait available */
 347:Middlewares/Third_Party/FreeRTOS/Source/CMSIS_RTOS/cmsis_os.c **** 
 348:Middlewares/Third_Party/FreeRTOS/Source/CMSIS_RTOS/cmsis_os.c **** /***********************  Timer Management Functions ***************************/
 349:Middlewares/Third_Party/FreeRTOS/Source/CMSIS_RTOS/cmsis_os.c **** /**
 350:Middlewares/Third_Party/FreeRTOS/Source/CMSIS_RTOS/cmsis_os.c **** * @brief  Create a timer.
 351:Middlewares/Third_Party/FreeRTOS/Source/CMSIS_RTOS/cmsis_os.c **** * @param  timer_def     timer object referenced with \ref osTimer.
 352:Middlewares/Third_Party/FreeRTOS/Source/CMSIS_RTOS/cmsis_os.c **** * @param  type          osTimerOnce for one-shot or osTimerPeriodic for periodic behavior.
 353:Middlewares/Third_Party/FreeRTOS/Source/CMSIS_RTOS/cmsis_os.c **** * @param  argument      argument to the timer call back function.
 354:Middlewares/Third_Party/FreeRTOS/Source/CMSIS_RTOS/cmsis_os.c **** * @retval  timer ID for reference by other functions or NULL in case of error.
 355:Middlewares/Third_Party/FreeRTOS/Source/CMSIS_RTOS/cmsis_os.c **** * @note   MUST REMAIN UNCHANGED: \b osTimerCreate shall be consistent in every CMSIS-RTOS.
 356:Middlewares/Third_Party/FreeRTOS/Source/CMSIS_RTOS/cmsis_os.c **** */
 357:Middlewares/Third_Party/FreeRTOS/Source/CMSIS_RTOS/cmsis_os.c **** osTimerId osTimerCreate (const osTimerDef_t *timer_def, os_timer_type type, void *argument)
 358:Middlewares/Third_Party/FreeRTOS/Source/CMSIS_RTOS/cmsis_os.c **** {
 580              		.loc 1 358 1 is_stmt 1 view -0
 581              		.cfi_startproc
 582              		@ args = 0, pretend = 0, frame = 0
 583              		@ frame_needed = 0, uses_anonymous_args = 0
ARM GAS  C:\Users\LJH\AppData\Local\Temp\ccdyqIDU.s 			page 21


 584              		@ link register save eliminated.
 359:Middlewares/Third_Party/FreeRTOS/Source/CMSIS_RTOS/cmsis_os.c **** #if (configUSE_TIMERS == 1)
 360:Middlewares/Third_Party/FreeRTOS/Source/CMSIS_RTOS/cmsis_os.c **** 
 361:Middlewares/Third_Party/FreeRTOS/Source/CMSIS_RTOS/cmsis_os.c **** #if( ( configSUPPORT_STATIC_ALLOCATION == 1 ) && ( configSUPPORT_DYNAMIC_ALLOCATION == 1 ) ) 
 362:Middlewares/Third_Party/FreeRTOS/Source/CMSIS_RTOS/cmsis_os.c ****   if(timer_def->controlblock != NULL) {
 363:Middlewares/Third_Party/FreeRTOS/Source/CMSIS_RTOS/cmsis_os.c ****     return xTimerCreateStatic((const char *)"",
 364:Middlewares/Third_Party/FreeRTOS/Source/CMSIS_RTOS/cmsis_os.c ****                       1, // period should be filled when starting the Timer using osTimerStart
 365:Middlewares/Third_Party/FreeRTOS/Source/CMSIS_RTOS/cmsis_os.c ****                       (type == osTimerPeriodic) ? pdTRUE : pdFALSE,
 366:Middlewares/Third_Party/FreeRTOS/Source/CMSIS_RTOS/cmsis_os.c ****                       (void *) argument,
 367:Middlewares/Third_Party/FreeRTOS/Source/CMSIS_RTOS/cmsis_os.c ****                       (TaskFunction_t)timer_def->ptimer,
 368:Middlewares/Third_Party/FreeRTOS/Source/CMSIS_RTOS/cmsis_os.c ****                       (StaticTimer_t *)timer_def->controlblock);
 369:Middlewares/Third_Party/FreeRTOS/Source/CMSIS_RTOS/cmsis_os.c ****   }
 370:Middlewares/Third_Party/FreeRTOS/Source/CMSIS_RTOS/cmsis_os.c ****   else {
 371:Middlewares/Third_Party/FreeRTOS/Source/CMSIS_RTOS/cmsis_os.c ****     return xTimerCreate((const char *)"",
 372:Middlewares/Third_Party/FreeRTOS/Source/CMSIS_RTOS/cmsis_os.c ****                       1, // period should be filled when starting the Timer using osTimerStart
 373:Middlewares/Third_Party/FreeRTOS/Source/CMSIS_RTOS/cmsis_os.c ****                       (type == osTimerPeriodic) ? pdTRUE : pdFALSE,
 374:Middlewares/Third_Party/FreeRTOS/Source/CMSIS_RTOS/cmsis_os.c ****                       (void *) argument,
 375:Middlewares/Third_Party/FreeRTOS/Source/CMSIS_RTOS/cmsis_os.c ****                       (TaskFunction_t)timer_def->ptimer);
 376:Middlewares/Third_Party/FreeRTOS/Source/CMSIS_RTOS/cmsis_os.c ****  }
 377:Middlewares/Third_Party/FreeRTOS/Source/CMSIS_RTOS/cmsis_os.c **** #elif( configSUPPORT_STATIC_ALLOCATION == 1 )
 378:Middlewares/Third_Party/FreeRTOS/Source/CMSIS_RTOS/cmsis_os.c ****   return xTimerCreateStatic((const char *)"",
 379:Middlewares/Third_Party/FreeRTOS/Source/CMSIS_RTOS/cmsis_os.c ****                       1, // period should be filled when starting the Timer using osTimerStart
 380:Middlewares/Third_Party/FreeRTOS/Source/CMSIS_RTOS/cmsis_os.c ****                       (type == osTimerPeriodic) ? pdTRUE : pdFALSE,
 381:Middlewares/Third_Party/FreeRTOS/Source/CMSIS_RTOS/cmsis_os.c ****                       (void *) argument,
 382:Middlewares/Third_Party/FreeRTOS/Source/CMSIS_RTOS/cmsis_os.c ****                       (TaskFunction_t)timer_def->ptimer,
 383:Middlewares/Third_Party/FreeRTOS/Source/CMSIS_RTOS/cmsis_os.c ****                       (StaticTimer_t *)timer_def->controlblock);  
 384:Middlewares/Third_Party/FreeRTOS/Source/CMSIS_RTOS/cmsis_os.c **** #else
 385:Middlewares/Third_Party/FreeRTOS/Source/CMSIS_RTOS/cmsis_os.c ****   return xTimerCreate((const char *)"",
 386:Middlewares/Third_Party/FreeRTOS/Source/CMSIS_RTOS/cmsis_os.c ****                       1, // period should be filled when starting the Timer using osTimerStart
 387:Middlewares/Third_Party/FreeRTOS/Source/CMSIS_RTOS/cmsis_os.c ****                       (type == osTimerPeriodic) ? pdTRUE : pdFALSE,
 388:Middlewares/Third_Party/FreeRTOS/Source/CMSIS_RTOS/cmsis_os.c ****                       (void *) argument,
 389:Middlewares/Third_Party/FreeRTOS/Source/CMSIS_RTOS/cmsis_os.c ****                       (TaskFunction_t)timer_def->ptimer);
 390:Middlewares/Third_Party/FreeRTOS/Source/CMSIS_RTOS/cmsis_os.c **** #endif
 391:Middlewares/Third_Party/FreeRTOS/Source/CMSIS_RTOS/cmsis_os.c **** 
 392:Middlewares/Third_Party/FreeRTOS/Source/CMSIS_RTOS/cmsis_os.c **** #else 
 393:Middlewares/Third_Party/FreeRTOS/Source/CMSIS_RTOS/cmsis_os.c **** 	return NULL;
 585              		.loc 1 393 2 view .LVU118
 394:Middlewares/Third_Party/FreeRTOS/Source/CMSIS_RTOS/cmsis_os.c **** #endif
 395:Middlewares/Third_Party/FreeRTOS/Source/CMSIS_RTOS/cmsis_os.c **** }
 586              		.loc 1 395 1 is_stmt 0 view .LVU119
 587 0000 0020     		movs	r0, #0
 588              	.LVL42:
 589              		.loc 1 395 1 view .LVU120
 590 0002 7047     		bx	lr
 591              		.cfi_endproc
 592              	.LFE62:
 594              		.section	.text.osTimerStart,"ax",%progbits
 595              		.align	1
 596              		.global	osTimerStart
 597              		.syntax unified
 598              		.thumb
 599              		.thumb_func
 601              	osTimerStart:
 602              	.LVL43:
 603              	.LFB63:
 396:Middlewares/Third_Party/FreeRTOS/Source/CMSIS_RTOS/cmsis_os.c **** 
 397:Middlewares/Third_Party/FreeRTOS/Source/CMSIS_RTOS/cmsis_os.c **** /**
ARM GAS  C:\Users\LJH\AppData\Local\Temp\ccdyqIDU.s 			page 22


 398:Middlewares/Third_Party/FreeRTOS/Source/CMSIS_RTOS/cmsis_os.c **** * @brief  Start or restart a timer.
 399:Middlewares/Third_Party/FreeRTOS/Source/CMSIS_RTOS/cmsis_os.c **** * @param  timer_id      timer ID obtained by \ref osTimerCreate.
 400:Middlewares/Third_Party/FreeRTOS/Source/CMSIS_RTOS/cmsis_os.c **** * @param  millisec      time delay value of the timer.
 401:Middlewares/Third_Party/FreeRTOS/Source/CMSIS_RTOS/cmsis_os.c **** * @retval  status code that indicates the execution status of the function
 402:Middlewares/Third_Party/FreeRTOS/Source/CMSIS_RTOS/cmsis_os.c **** * @note   MUST REMAIN UNCHANGED: \b osTimerStart shall be consistent in every CMSIS-RTOS.
 403:Middlewares/Third_Party/FreeRTOS/Source/CMSIS_RTOS/cmsis_os.c **** */
 404:Middlewares/Third_Party/FreeRTOS/Source/CMSIS_RTOS/cmsis_os.c **** osStatus osTimerStart (osTimerId timer_id, uint32_t millisec)
 405:Middlewares/Third_Party/FreeRTOS/Source/CMSIS_RTOS/cmsis_os.c **** {
 604              		.loc 1 405 1 is_stmt 1 view -0
 605              		.cfi_startproc
 606              		@ args = 0, pretend = 0, frame = 0
 607              		@ frame_needed = 0, uses_anonymous_args = 0
 608              		@ link register save eliminated.
 406:Middlewares/Third_Party/FreeRTOS/Source/CMSIS_RTOS/cmsis_os.c ****   osStatus result = osOK;
 609              		.loc 1 406 3 view .LVU122
 407:Middlewares/Third_Party/FreeRTOS/Source/CMSIS_RTOS/cmsis_os.c **** #if (configUSE_TIMERS == 1)  
 408:Middlewares/Third_Party/FreeRTOS/Source/CMSIS_RTOS/cmsis_os.c ****   portBASE_TYPE taskWoken = pdFALSE;
 409:Middlewares/Third_Party/FreeRTOS/Source/CMSIS_RTOS/cmsis_os.c ****   TickType_t ticks = millisec / portTICK_PERIOD_MS;
 410:Middlewares/Third_Party/FreeRTOS/Source/CMSIS_RTOS/cmsis_os.c **** 
 411:Middlewares/Third_Party/FreeRTOS/Source/CMSIS_RTOS/cmsis_os.c ****   if (ticks == 0)
 412:Middlewares/Third_Party/FreeRTOS/Source/CMSIS_RTOS/cmsis_os.c ****     ticks = 1;
 413:Middlewares/Third_Party/FreeRTOS/Source/CMSIS_RTOS/cmsis_os.c ****     
 414:Middlewares/Third_Party/FreeRTOS/Source/CMSIS_RTOS/cmsis_os.c ****   if (inHandlerMode()) 
 415:Middlewares/Third_Party/FreeRTOS/Source/CMSIS_RTOS/cmsis_os.c ****   {
 416:Middlewares/Third_Party/FreeRTOS/Source/CMSIS_RTOS/cmsis_os.c ****     if (xTimerChangePeriodFromISR(timer_id, ticks, &taskWoken) != pdPASS)
 417:Middlewares/Third_Party/FreeRTOS/Source/CMSIS_RTOS/cmsis_os.c ****     {
 418:Middlewares/Third_Party/FreeRTOS/Source/CMSIS_RTOS/cmsis_os.c ****       result = osErrorOS;
 419:Middlewares/Third_Party/FreeRTOS/Source/CMSIS_RTOS/cmsis_os.c ****     }
 420:Middlewares/Third_Party/FreeRTOS/Source/CMSIS_RTOS/cmsis_os.c ****     else
 421:Middlewares/Third_Party/FreeRTOS/Source/CMSIS_RTOS/cmsis_os.c ****     {
 422:Middlewares/Third_Party/FreeRTOS/Source/CMSIS_RTOS/cmsis_os.c ****       portEND_SWITCHING_ISR(taskWoken);     
 423:Middlewares/Third_Party/FreeRTOS/Source/CMSIS_RTOS/cmsis_os.c ****     }
 424:Middlewares/Third_Party/FreeRTOS/Source/CMSIS_RTOS/cmsis_os.c ****   }
 425:Middlewares/Third_Party/FreeRTOS/Source/CMSIS_RTOS/cmsis_os.c ****   else 
 426:Middlewares/Third_Party/FreeRTOS/Source/CMSIS_RTOS/cmsis_os.c ****   {
 427:Middlewares/Third_Party/FreeRTOS/Source/CMSIS_RTOS/cmsis_os.c ****     if (xTimerChangePeriod(timer_id, ticks, 0) != pdPASS)
 428:Middlewares/Third_Party/FreeRTOS/Source/CMSIS_RTOS/cmsis_os.c ****       result = osErrorOS;
 429:Middlewares/Third_Party/FreeRTOS/Source/CMSIS_RTOS/cmsis_os.c ****   }
 430:Middlewares/Third_Party/FreeRTOS/Source/CMSIS_RTOS/cmsis_os.c **** 
 431:Middlewares/Third_Party/FreeRTOS/Source/CMSIS_RTOS/cmsis_os.c **** #else 
 432:Middlewares/Third_Party/FreeRTOS/Source/CMSIS_RTOS/cmsis_os.c ****   result = osErrorOS;
 610              		.loc 1 432 3 view .LVU123
 433:Middlewares/Third_Party/FreeRTOS/Source/CMSIS_RTOS/cmsis_os.c **** #endif
 434:Middlewares/Third_Party/FreeRTOS/Source/CMSIS_RTOS/cmsis_os.c ****   return result;
 611              		.loc 1 434 3 view .LVU124
 435:Middlewares/Third_Party/FreeRTOS/Source/CMSIS_RTOS/cmsis_os.c **** }
 612              		.loc 1 435 1 is_stmt 0 view .LVU125
 613 0000 FF20     		movs	r0, #255
 614              	.LVL44:
 615              		.loc 1 435 1 view .LVU126
 616 0002 7047     		bx	lr
 617              		.cfi_endproc
 618              	.LFE63:
 620              		.section	.text.osTimerStop,"ax",%progbits
 621              		.align	1
 622              		.global	osTimerStop
 623              		.syntax unified
ARM GAS  C:\Users\LJH\AppData\Local\Temp\ccdyqIDU.s 			page 23


 624              		.thumb
 625              		.thumb_func
 627              	osTimerStop:
 628              	.LVL45:
 629              	.LFB64:
 436:Middlewares/Third_Party/FreeRTOS/Source/CMSIS_RTOS/cmsis_os.c **** 
 437:Middlewares/Third_Party/FreeRTOS/Source/CMSIS_RTOS/cmsis_os.c **** /**
 438:Middlewares/Third_Party/FreeRTOS/Source/CMSIS_RTOS/cmsis_os.c **** * @brief  Stop a timer.
 439:Middlewares/Third_Party/FreeRTOS/Source/CMSIS_RTOS/cmsis_os.c **** * @param  timer_id      timer ID obtained by \ref osTimerCreate
 440:Middlewares/Third_Party/FreeRTOS/Source/CMSIS_RTOS/cmsis_os.c **** * @retval  status code that indicates the execution status of the function.
 441:Middlewares/Third_Party/FreeRTOS/Source/CMSIS_RTOS/cmsis_os.c **** * @note   MUST REMAIN UNCHANGED: \b osTimerStop shall be consistent in every CMSIS-RTOS.
 442:Middlewares/Third_Party/FreeRTOS/Source/CMSIS_RTOS/cmsis_os.c **** */
 443:Middlewares/Third_Party/FreeRTOS/Source/CMSIS_RTOS/cmsis_os.c **** osStatus osTimerStop (osTimerId timer_id)
 444:Middlewares/Third_Party/FreeRTOS/Source/CMSIS_RTOS/cmsis_os.c **** {
 630              		.loc 1 444 1 is_stmt 1 view -0
 631              		.cfi_startproc
 632              		@ args = 0, pretend = 0, frame = 0
 633              		@ frame_needed = 0, uses_anonymous_args = 0
 634              		@ link register save eliminated.
 445:Middlewares/Third_Party/FreeRTOS/Source/CMSIS_RTOS/cmsis_os.c ****   osStatus result = osOK;
 635              		.loc 1 445 3 view .LVU128
 446:Middlewares/Third_Party/FreeRTOS/Source/CMSIS_RTOS/cmsis_os.c **** #if (configUSE_TIMERS == 1)  
 447:Middlewares/Third_Party/FreeRTOS/Source/CMSIS_RTOS/cmsis_os.c ****   portBASE_TYPE taskWoken = pdFALSE;
 448:Middlewares/Third_Party/FreeRTOS/Source/CMSIS_RTOS/cmsis_os.c **** 
 449:Middlewares/Third_Party/FreeRTOS/Source/CMSIS_RTOS/cmsis_os.c ****   if (inHandlerMode()) {
 450:Middlewares/Third_Party/FreeRTOS/Source/CMSIS_RTOS/cmsis_os.c ****     if (xTimerStopFromISR(timer_id, &taskWoken) != pdPASS) {
 451:Middlewares/Third_Party/FreeRTOS/Source/CMSIS_RTOS/cmsis_os.c ****       return osErrorOS;
 452:Middlewares/Third_Party/FreeRTOS/Source/CMSIS_RTOS/cmsis_os.c ****     }
 453:Middlewares/Third_Party/FreeRTOS/Source/CMSIS_RTOS/cmsis_os.c ****     portEND_SWITCHING_ISR(taskWoken);
 454:Middlewares/Third_Party/FreeRTOS/Source/CMSIS_RTOS/cmsis_os.c ****   }
 455:Middlewares/Third_Party/FreeRTOS/Source/CMSIS_RTOS/cmsis_os.c ****   else {
 456:Middlewares/Third_Party/FreeRTOS/Source/CMSIS_RTOS/cmsis_os.c ****     if (xTimerStop(timer_id, 0) != pdPASS) {
 457:Middlewares/Third_Party/FreeRTOS/Source/CMSIS_RTOS/cmsis_os.c ****       result = osErrorOS;
 458:Middlewares/Third_Party/FreeRTOS/Source/CMSIS_RTOS/cmsis_os.c ****     }
 459:Middlewares/Third_Party/FreeRTOS/Source/CMSIS_RTOS/cmsis_os.c ****   }
 460:Middlewares/Third_Party/FreeRTOS/Source/CMSIS_RTOS/cmsis_os.c **** #else 
 461:Middlewares/Third_Party/FreeRTOS/Source/CMSIS_RTOS/cmsis_os.c ****   result = osErrorOS;
 636              		.loc 1 461 3 view .LVU129
 462:Middlewares/Third_Party/FreeRTOS/Source/CMSIS_RTOS/cmsis_os.c **** #endif 
 463:Middlewares/Third_Party/FreeRTOS/Source/CMSIS_RTOS/cmsis_os.c ****   return result;
 637              		.loc 1 463 3 view .LVU130
 464:Middlewares/Third_Party/FreeRTOS/Source/CMSIS_RTOS/cmsis_os.c **** }
 638              		.loc 1 464 1 is_stmt 0 view .LVU131
 639 0000 FF20     		movs	r0, #255
 640              	.LVL46:
 641              		.loc 1 464 1 view .LVU132
 642 0002 7047     		bx	lr
 643              		.cfi_endproc
 644              	.LFE64:
 646              		.section	.text.osTimerDelete,"ax",%progbits
 647              		.align	1
 648              		.global	osTimerDelete
 649              		.syntax unified
 650              		.thumb
 651              		.thumb_func
 653              	osTimerDelete:
 654              	.LVL47:
ARM GAS  C:\Users\LJH\AppData\Local\Temp\ccdyqIDU.s 			page 24


 655              	.LFB65:
 465:Middlewares/Third_Party/FreeRTOS/Source/CMSIS_RTOS/cmsis_os.c **** 
 466:Middlewares/Third_Party/FreeRTOS/Source/CMSIS_RTOS/cmsis_os.c **** /**
 467:Middlewares/Third_Party/FreeRTOS/Source/CMSIS_RTOS/cmsis_os.c **** * @brief  Delete a timer.
 468:Middlewares/Third_Party/FreeRTOS/Source/CMSIS_RTOS/cmsis_os.c **** * @param  timer_id      timer ID obtained by \ref osTimerCreate
 469:Middlewares/Third_Party/FreeRTOS/Source/CMSIS_RTOS/cmsis_os.c **** * @retval  status code that indicates the execution status of the function.
 470:Middlewares/Third_Party/FreeRTOS/Source/CMSIS_RTOS/cmsis_os.c **** * @note   MUST REMAIN UNCHANGED: \b osTimerDelete shall be consistent in every CMSIS-RTOS.
 471:Middlewares/Third_Party/FreeRTOS/Source/CMSIS_RTOS/cmsis_os.c **** */
 472:Middlewares/Third_Party/FreeRTOS/Source/CMSIS_RTOS/cmsis_os.c **** osStatus osTimerDelete (osTimerId timer_id)
 473:Middlewares/Third_Party/FreeRTOS/Source/CMSIS_RTOS/cmsis_os.c **** {
 656              		.loc 1 473 1 is_stmt 1 view -0
 657              		.cfi_startproc
 658              		@ args = 0, pretend = 0, frame = 0
 659              		@ frame_needed = 0, uses_anonymous_args = 0
 660              		@ link register save eliminated.
 474:Middlewares/Third_Party/FreeRTOS/Source/CMSIS_RTOS/cmsis_os.c **** osStatus result = osOK;
 661              		.loc 1 474 1 view .LVU134
 475:Middlewares/Third_Party/FreeRTOS/Source/CMSIS_RTOS/cmsis_os.c **** 
 476:Middlewares/Third_Party/FreeRTOS/Source/CMSIS_RTOS/cmsis_os.c **** #if (configUSE_TIMERS == 1)
 477:Middlewares/Third_Party/FreeRTOS/Source/CMSIS_RTOS/cmsis_os.c **** 
 478:Middlewares/Third_Party/FreeRTOS/Source/CMSIS_RTOS/cmsis_os.c ****    if (inHandlerMode()) {
 479:Middlewares/Third_Party/FreeRTOS/Source/CMSIS_RTOS/cmsis_os.c ****      return osErrorISR;
 480:Middlewares/Third_Party/FreeRTOS/Source/CMSIS_RTOS/cmsis_os.c ****   }
 481:Middlewares/Third_Party/FreeRTOS/Source/CMSIS_RTOS/cmsis_os.c ****   else { 
 482:Middlewares/Third_Party/FreeRTOS/Source/CMSIS_RTOS/cmsis_os.c ****     if ((xTimerDelete(timer_id, osWaitForever )) != pdPASS) {
 483:Middlewares/Third_Party/FreeRTOS/Source/CMSIS_RTOS/cmsis_os.c ****       result = osErrorOS;
 484:Middlewares/Third_Party/FreeRTOS/Source/CMSIS_RTOS/cmsis_os.c ****     }
 485:Middlewares/Third_Party/FreeRTOS/Source/CMSIS_RTOS/cmsis_os.c ****   } 
 486:Middlewares/Third_Party/FreeRTOS/Source/CMSIS_RTOS/cmsis_os.c ****     
 487:Middlewares/Third_Party/FreeRTOS/Source/CMSIS_RTOS/cmsis_os.c **** #else 
 488:Middlewares/Third_Party/FreeRTOS/Source/CMSIS_RTOS/cmsis_os.c ****   result = osErrorOS;
 662              		.loc 1 488 3 view .LVU135
 489:Middlewares/Third_Party/FreeRTOS/Source/CMSIS_RTOS/cmsis_os.c **** #endif 
 490:Middlewares/Third_Party/FreeRTOS/Source/CMSIS_RTOS/cmsis_os.c ****  
 491:Middlewares/Third_Party/FreeRTOS/Source/CMSIS_RTOS/cmsis_os.c ****   return result;
 663              		.loc 1 491 3 view .LVU136
 492:Middlewares/Third_Party/FreeRTOS/Source/CMSIS_RTOS/cmsis_os.c **** }
 664              		.loc 1 492 1 is_stmt 0 view .LVU137
 665 0000 FF20     		movs	r0, #255
 666              	.LVL48:
 667              		.loc 1 492 1 view .LVU138
 668 0002 7047     		bx	lr
 669              		.cfi_endproc
 670              	.LFE65:
 672              		.section	.text.osSignalSet,"ax",%progbits
 673              		.align	1
 674              		.global	osSignalSet
 675              		.syntax unified
 676              		.thumb
 677              		.thumb_func
 679              	osSignalSet:
 680              	.LVL49:
 681              	.LFB66:
 493:Middlewares/Third_Party/FreeRTOS/Source/CMSIS_RTOS/cmsis_os.c **** 
 494:Middlewares/Third_Party/FreeRTOS/Source/CMSIS_RTOS/cmsis_os.c **** /***************************  Signal Management ********************************/
 495:Middlewares/Third_Party/FreeRTOS/Source/CMSIS_RTOS/cmsis_os.c **** /**
 496:Middlewares/Third_Party/FreeRTOS/Source/CMSIS_RTOS/cmsis_os.c **** * @brief  Set the specified Signal Flags of an active thread.
ARM GAS  C:\Users\LJH\AppData\Local\Temp\ccdyqIDU.s 			page 25


 497:Middlewares/Third_Party/FreeRTOS/Source/CMSIS_RTOS/cmsis_os.c **** * @param  thread_id     thread ID obtained by \ref osThreadCreate or \ref osThreadGetId.
 498:Middlewares/Third_Party/FreeRTOS/Source/CMSIS_RTOS/cmsis_os.c **** * @param  signals       specifies the signal flags of the thread that should be set.
 499:Middlewares/Third_Party/FreeRTOS/Source/CMSIS_RTOS/cmsis_os.c **** * @retval previous signal flags of the specified thread or 0x80000000 in case of incorrect paramete
 500:Middlewares/Third_Party/FreeRTOS/Source/CMSIS_RTOS/cmsis_os.c **** * @note   MUST REMAIN UNCHANGED: \b osSignalSet shall be consistent in every CMSIS-RTOS.
 501:Middlewares/Third_Party/FreeRTOS/Source/CMSIS_RTOS/cmsis_os.c **** */
 502:Middlewares/Third_Party/FreeRTOS/Source/CMSIS_RTOS/cmsis_os.c **** int32_t osSignalSet (osThreadId thread_id, int32_t signal)
 503:Middlewares/Third_Party/FreeRTOS/Source/CMSIS_RTOS/cmsis_os.c **** {
 682              		.loc 1 503 1 is_stmt 1 view -0
 683              		.cfi_startproc
 684              		@ args = 0, pretend = 0, frame = 8
 685              		@ frame_needed = 0, uses_anonymous_args = 0
 686              		.loc 1 503 1 is_stmt 0 view .LVU140
 687 0000 30B5     		push	{r4, r5, lr}
 688              	.LCFI12:
 689              		.cfi_def_cfa_offset 12
 690              		.cfi_offset 4, -12
 691              		.cfi_offset 5, -8
 692              		.cfi_offset 14, -4
 693 0002 85B0     		sub	sp, sp, #20
 694              	.LCFI13:
 695              		.cfi_def_cfa_offset 32
 696 0004 0446     		mov	r4, r0
 697 0006 0D46     		mov	r5, r1
 504:Middlewares/Third_Party/FreeRTOS/Source/CMSIS_RTOS/cmsis_os.c **** #if( configUSE_TASK_NOTIFICATIONS == 1 )	
 505:Middlewares/Third_Party/FreeRTOS/Source/CMSIS_RTOS/cmsis_os.c ****   BaseType_t xHigherPriorityTaskWoken = pdFALSE;
 698              		.loc 1 505 3 is_stmt 1 view .LVU141
 699              		.loc 1 505 14 is_stmt 0 view .LVU142
 700 0008 0023     		movs	r3, #0
 701 000a 0393     		str	r3, [sp, #12]
 506:Middlewares/Third_Party/FreeRTOS/Source/CMSIS_RTOS/cmsis_os.c ****   uint32_t ulPreviousNotificationValue = 0;
 702              		.loc 1 506 3 is_stmt 1 view .LVU143
 703              		.loc 1 506 12 is_stmt 0 view .LVU144
 704 000c 0293     		str	r3, [sp, #8]
 507:Middlewares/Third_Party/FreeRTOS/Source/CMSIS_RTOS/cmsis_os.c ****   
 508:Middlewares/Third_Party/FreeRTOS/Source/CMSIS_RTOS/cmsis_os.c ****   if (inHandlerMode())
 705              		.loc 1 508 3 is_stmt 1 view .LVU145
 706              		.loc 1 508 7 is_stmt 0 view .LVU146
 707 000e FFF7FEFF 		bl	inHandlerMode
 708              	.LVL50:
 709              		.loc 1 508 6 view .LVU147
 710 0012 B0B1     		cbz	r0, .L45
 509:Middlewares/Third_Party/FreeRTOS/Source/CMSIS_RTOS/cmsis_os.c ****   {
 510:Middlewares/Third_Party/FreeRTOS/Source/CMSIS_RTOS/cmsis_os.c ****     if(xTaskGenericNotifyFromISR( thread_id , (uint32_t)signal, eSetBits, &ulPreviousNotificationVa
 711              		.loc 1 510 5 is_stmt 1 view .LVU148
 712              		.loc 1 510 8 is_stmt 0 view .LVU149
 713 0014 03AB     		add	r3, sp, #12
 714 0016 0093     		str	r3, [sp]
 715 0018 02AB     		add	r3, sp, #8
 716 001a 0122     		movs	r2, #1
 717 001c 2946     		mov	r1, r5
 718 001e 2046     		mov	r0, r4
 719 0020 FFF7FEFF 		bl	xTaskGenericNotifyFromISR
 720              	.LVL51:
 721              		.loc 1 510 7 view .LVU150
 722 0024 0128     		cmp	r0, #1
 723 0026 17D1     		bne	.L48
 511:Middlewares/Third_Party/FreeRTOS/Source/CMSIS_RTOS/cmsis_os.c ****       return 0x80000000;
ARM GAS  C:\Users\LJH\AppData\Local\Temp\ccdyqIDU.s 			page 26


 512:Middlewares/Third_Party/FreeRTOS/Source/CMSIS_RTOS/cmsis_os.c ****     
 513:Middlewares/Third_Party/FreeRTOS/Source/CMSIS_RTOS/cmsis_os.c ****     portYIELD_FROM_ISR( xHigherPriorityTaskWoken );
 724              		.loc 1 513 5 is_stmt 1 view .LVU151
 725 0028 039B     		ldr	r3, [sp, #12]
 726 002a 93B1     		cbz	r3, .L47
 727              		.loc 1 513 5 discriminator 1 view .LVU152
 728 002c 4FF0E023 		mov	r3, #-536813568
 729 0030 4FF08052 		mov	r2, #268435456
 730 0034 C3F8042D 		str	r2, [r3, #3332]
 731              		.loc 1 513 5 discriminator 1 view .LVU153
 732              		.syntax unified
 733              	@ 513 "Middlewares/Third_Party/FreeRTOS/Source/CMSIS_RTOS/cmsis_os.c" 1
 734 0038 BFF34F8F 		dsb
 735              	@ 0 "" 2
 736              		.loc 1 513 5 discriminator 1 view .LVU154
 737              	@ 513 "Middlewares/Third_Party/FreeRTOS/Source/CMSIS_RTOS/cmsis_os.c" 1
 738 003c BFF36F8F 		isb
 739              	@ 0 "" 2
 740              		.thumb
 741              		.syntax unified
 742 0040 07E0     		b	.L47
 743              	.L45:
 514:Middlewares/Third_Party/FreeRTOS/Source/CMSIS_RTOS/cmsis_os.c ****   }  
 515:Middlewares/Third_Party/FreeRTOS/Source/CMSIS_RTOS/cmsis_os.c ****   else if(xTaskGenericNotify( thread_id , (uint32_t)signal, eSetBits, &ulPreviousNotificationValue)
 744              		.loc 1 515 8 view .LVU155
 745              		.loc 1 515 11 is_stmt 0 view .LVU156
 746 0042 02AB     		add	r3, sp, #8
 747 0044 0122     		movs	r2, #1
 748 0046 2946     		mov	r1, r5
 749 0048 2046     		mov	r0, r4
 750 004a FFF7FEFF 		bl	xTaskGenericNotify
 751              	.LVL52:
 752              		.loc 1 515 10 view .LVU157
 753 004e 0128     		cmp	r0, #1
 754 0050 05D1     		bne	.L49
 755              	.L47:
 516:Middlewares/Third_Party/FreeRTOS/Source/CMSIS_RTOS/cmsis_os.c ****     return 0x80000000;
 517:Middlewares/Third_Party/FreeRTOS/Source/CMSIS_RTOS/cmsis_os.c ****   
 518:Middlewares/Third_Party/FreeRTOS/Source/CMSIS_RTOS/cmsis_os.c ****   return ulPreviousNotificationValue;
 756              		.loc 1 518 3 is_stmt 1 view .LVU158
 757              		.loc 1 518 10 is_stmt 0 view .LVU159
 758 0052 0298     		ldr	r0, [sp, #8]
 759              	.L44:
 519:Middlewares/Third_Party/FreeRTOS/Source/CMSIS_RTOS/cmsis_os.c **** #else
 520:Middlewares/Third_Party/FreeRTOS/Source/CMSIS_RTOS/cmsis_os.c ****   (void) thread_id;
 521:Middlewares/Third_Party/FreeRTOS/Source/CMSIS_RTOS/cmsis_os.c ****   (void) signal;
 522:Middlewares/Third_Party/FreeRTOS/Source/CMSIS_RTOS/cmsis_os.c **** 
 523:Middlewares/Third_Party/FreeRTOS/Source/CMSIS_RTOS/cmsis_os.c ****   return 0x80000000; /* Task Notification not supported */ 	
 524:Middlewares/Third_Party/FreeRTOS/Source/CMSIS_RTOS/cmsis_os.c **** #endif
 525:Middlewares/Third_Party/FreeRTOS/Source/CMSIS_RTOS/cmsis_os.c **** }
 760              		.loc 1 525 1 view .LVU160
 761 0054 05B0     		add	sp, sp, #20
 762              	.LCFI14:
 763              		.cfi_remember_state
 764              		.cfi_def_cfa_offset 12
 765              		@ sp needed
 766 0056 30BD     		pop	{r4, r5, pc}
ARM GAS  C:\Users\LJH\AppData\Local\Temp\ccdyqIDU.s 			page 27


 767              	.LVL53:
 768              	.L48:
 769              	.LCFI15:
 770              		.cfi_restore_state
 511:Middlewares/Third_Party/FreeRTOS/Source/CMSIS_RTOS/cmsis_os.c ****     
 771              		.loc 1 511 14 view .LVU161
 772 0058 4FF00040 		mov	r0, #-2147483648
 773 005c FAE7     		b	.L44
 774              	.L49:
 516:Middlewares/Third_Party/FreeRTOS/Source/CMSIS_RTOS/cmsis_os.c ****     return 0x80000000;
 775              		.loc 1 516 12 view .LVU162
 776 005e 4FF00040 		mov	r0, #-2147483648
 777 0062 F7E7     		b	.L44
 778              		.cfi_endproc
 779              	.LFE66:
 781              		.section	.text.osSignalWait,"ax",%progbits
 782              		.align	1
 783              		.global	osSignalWait
 784              		.syntax unified
 785              		.thumb
 786              		.thumb_func
 788              	osSignalWait:
 789              	.LVL54:
 790              	.LFB67:
 526:Middlewares/Third_Party/FreeRTOS/Source/CMSIS_RTOS/cmsis_os.c **** 
 527:Middlewares/Third_Party/FreeRTOS/Source/CMSIS_RTOS/cmsis_os.c **** /**
 528:Middlewares/Third_Party/FreeRTOS/Source/CMSIS_RTOS/cmsis_os.c **** * @brief  Clear the specified Signal Flags of an active thread.
 529:Middlewares/Third_Party/FreeRTOS/Source/CMSIS_RTOS/cmsis_os.c **** * @param  thread_id  thread ID obtained by \ref osThreadCreate or \ref osThreadGetId.
 530:Middlewares/Third_Party/FreeRTOS/Source/CMSIS_RTOS/cmsis_os.c **** * @param  signals    specifies the signal flags of the thread that shall be cleared.
 531:Middlewares/Third_Party/FreeRTOS/Source/CMSIS_RTOS/cmsis_os.c **** * @retval  previous signal flags of the specified thread or 0x80000000 in case of incorrect paramet
 532:Middlewares/Third_Party/FreeRTOS/Source/CMSIS_RTOS/cmsis_os.c **** * @note   MUST REMAIN UNCHANGED: \b osSignalClear shall be consistent in every CMSIS-RTOS.
 533:Middlewares/Third_Party/FreeRTOS/Source/CMSIS_RTOS/cmsis_os.c **** */
 534:Middlewares/Third_Party/FreeRTOS/Source/CMSIS_RTOS/cmsis_os.c **** int32_t osSignalClear (osThreadId thread_id, int32_t signal);
 535:Middlewares/Third_Party/FreeRTOS/Source/CMSIS_RTOS/cmsis_os.c **** 
 536:Middlewares/Third_Party/FreeRTOS/Source/CMSIS_RTOS/cmsis_os.c **** /**
 537:Middlewares/Third_Party/FreeRTOS/Source/CMSIS_RTOS/cmsis_os.c **** * @brief  Wait for one or more Signal Flags to become signaled for the current \b RUNNING thread.
 538:Middlewares/Third_Party/FreeRTOS/Source/CMSIS_RTOS/cmsis_os.c **** * @param  signals   wait until all specified signal flags set or 0 for any single signal flag.
 539:Middlewares/Third_Party/FreeRTOS/Source/CMSIS_RTOS/cmsis_os.c **** * @param  millisec  timeout value or 0 in case of no time-out.
 540:Middlewares/Third_Party/FreeRTOS/Source/CMSIS_RTOS/cmsis_os.c **** * @retval  event flag information or error code.
 541:Middlewares/Third_Party/FreeRTOS/Source/CMSIS_RTOS/cmsis_os.c **** * @note   MUST REMAIN UNCHANGED: \b osSignalWait shall be consistent in every CMSIS-RTOS.
 542:Middlewares/Third_Party/FreeRTOS/Source/CMSIS_RTOS/cmsis_os.c **** */
 543:Middlewares/Third_Party/FreeRTOS/Source/CMSIS_RTOS/cmsis_os.c **** osEvent osSignalWait (int32_t signals, uint32_t millisec)
 544:Middlewares/Third_Party/FreeRTOS/Source/CMSIS_RTOS/cmsis_os.c **** {
 791              		.loc 1 544 1 is_stmt 1 view -0
 792              		.cfi_startproc
 793              		@ args = 0, pretend = 0, frame = 16
 794              		@ frame_needed = 0, uses_anonymous_args = 0
 795              		.loc 1 544 1 is_stmt 0 view .LVU164
 796 0000 70B5     		push	{r4, r5, r6, lr}
 797              	.LCFI16:
 798              		.cfi_def_cfa_offset 16
 799              		.cfi_offset 4, -16
 800              		.cfi_offset 5, -12
 801              		.cfi_offset 6, -8
 802              		.cfi_offset 14, -4
 803 0002 84B0     		sub	sp, sp, #16
 804              	.LCFI17:
ARM GAS  C:\Users\LJH\AppData\Local\Temp\ccdyqIDU.s 			page 28


 805              		.cfi_def_cfa_offset 32
 806 0004 0446     		mov	r4, r0
 807 0006 0E46     		mov	r6, r1
 808 0008 1546     		mov	r5, r2
 545:Middlewares/Third_Party/FreeRTOS/Source/CMSIS_RTOS/cmsis_os.c ****   osEvent ret;
 809              		.loc 1 545 3 is_stmt 1 view .LVU165
 546:Middlewares/Third_Party/FreeRTOS/Source/CMSIS_RTOS/cmsis_os.c **** 
 547:Middlewares/Third_Party/FreeRTOS/Source/CMSIS_RTOS/cmsis_os.c **** #if( configUSE_TASK_NOTIFICATIONS == 1 )
 548:Middlewares/Third_Party/FreeRTOS/Source/CMSIS_RTOS/cmsis_os.c **** 	
 549:Middlewares/Third_Party/FreeRTOS/Source/CMSIS_RTOS/cmsis_os.c ****   TickType_t ticks;
 810              		.loc 1 549 3 view .LVU166
 550:Middlewares/Third_Party/FreeRTOS/Source/CMSIS_RTOS/cmsis_os.c **** 
 551:Middlewares/Third_Party/FreeRTOS/Source/CMSIS_RTOS/cmsis_os.c ****   ret.value.signals = 0;  
 811              		.loc 1 551 3 view .LVU167
 812              		.loc 1 551 21 is_stmt 0 view .LVU168
 813 000a 0023     		movs	r3, #0
 814 000c 0293     		str	r3, [sp, #8]
 552:Middlewares/Third_Party/FreeRTOS/Source/CMSIS_RTOS/cmsis_os.c ****   ticks = 0;
 815              		.loc 1 552 3 is_stmt 1 view .LVU169
 816              	.LVL55:
 553:Middlewares/Third_Party/FreeRTOS/Source/CMSIS_RTOS/cmsis_os.c ****   if (millisec == osWaitForever) {
 817              		.loc 1 553 3 view .LVU170
 554:Middlewares/Third_Party/FreeRTOS/Source/CMSIS_RTOS/cmsis_os.c ****     ticks = portMAX_DELAY;
 555:Middlewares/Third_Party/FreeRTOS/Source/CMSIS_RTOS/cmsis_os.c ****   }
 556:Middlewares/Third_Party/FreeRTOS/Source/CMSIS_RTOS/cmsis_os.c ****   else if (millisec != 0) {
 557:Middlewares/Third_Party/FreeRTOS/Source/CMSIS_RTOS/cmsis_os.c ****     ticks = millisec / portTICK_PERIOD_MS;
 558:Middlewares/Third_Party/FreeRTOS/Source/CMSIS_RTOS/cmsis_os.c ****     if (ticks == 0) {
 559:Middlewares/Third_Party/FreeRTOS/Source/CMSIS_RTOS/cmsis_os.c ****       ticks = 1;
 560:Middlewares/Third_Party/FreeRTOS/Source/CMSIS_RTOS/cmsis_os.c ****     }
 561:Middlewares/Third_Party/FreeRTOS/Source/CMSIS_RTOS/cmsis_os.c ****   }  
 562:Middlewares/Third_Party/FreeRTOS/Source/CMSIS_RTOS/cmsis_os.c ****   
 563:Middlewares/Third_Party/FreeRTOS/Source/CMSIS_RTOS/cmsis_os.c ****   if (inHandlerMode())
 818              		.loc 1 563 3 view .LVU171
 819              		.loc 1 563 7 is_stmt 0 view .LVU172
 820 000e FFF7FEFF 		bl	inHandlerMode
 821              	.LVL56:
 822              		.loc 1 563 6 view .LVU173
 823 0012 48B1     		cbz	r0, .L52
 564:Middlewares/Third_Party/FreeRTOS/Source/CMSIS_RTOS/cmsis_os.c ****   {
 565:Middlewares/Third_Party/FreeRTOS/Source/CMSIS_RTOS/cmsis_os.c ****     ret.status = osErrorISR;  /*Not allowed in ISR*/
 824              		.loc 1 565 5 is_stmt 1 view .LVU174
 825              		.loc 1 565 16 is_stmt 0 view .LVU175
 826 0014 8223     		movs	r3, #130
 827 0016 0193     		str	r3, [sp, #4]
 828              	.L53:
 566:Middlewares/Third_Party/FreeRTOS/Source/CMSIS_RTOS/cmsis_os.c ****   }
 567:Middlewares/Third_Party/FreeRTOS/Source/CMSIS_RTOS/cmsis_os.c ****   else
 568:Middlewares/Third_Party/FreeRTOS/Source/CMSIS_RTOS/cmsis_os.c ****   {
 569:Middlewares/Third_Party/FreeRTOS/Source/CMSIS_RTOS/cmsis_os.c ****     if(xTaskNotifyWait( 0,(uint32_t) signals, (uint32_t *)&ret.value.signals, ticks) != pdTRUE)
 570:Middlewares/Third_Party/FreeRTOS/Source/CMSIS_RTOS/cmsis_os.c ****     {
 571:Middlewares/Third_Party/FreeRTOS/Source/CMSIS_RTOS/cmsis_os.c ****       if(ticks == 0)  ret.status = osOK;
 572:Middlewares/Third_Party/FreeRTOS/Source/CMSIS_RTOS/cmsis_os.c ****       else  ret.status = osEventTimeout;
 573:Middlewares/Third_Party/FreeRTOS/Source/CMSIS_RTOS/cmsis_os.c ****     }
 574:Middlewares/Third_Party/FreeRTOS/Source/CMSIS_RTOS/cmsis_os.c ****     else if(ret.value.signals < 0)
 575:Middlewares/Third_Party/FreeRTOS/Source/CMSIS_RTOS/cmsis_os.c ****     {
 576:Middlewares/Third_Party/FreeRTOS/Source/CMSIS_RTOS/cmsis_os.c ****       ret.status =  osErrorValue;     
 577:Middlewares/Third_Party/FreeRTOS/Source/CMSIS_RTOS/cmsis_os.c ****     }
ARM GAS  C:\Users\LJH\AppData\Local\Temp\ccdyqIDU.s 			page 29


 578:Middlewares/Third_Party/FreeRTOS/Source/CMSIS_RTOS/cmsis_os.c ****     else  ret.status =  osEventSignal;
 579:Middlewares/Third_Party/FreeRTOS/Source/CMSIS_RTOS/cmsis_os.c ****   }
 580:Middlewares/Third_Party/FreeRTOS/Source/CMSIS_RTOS/cmsis_os.c **** #else
 581:Middlewares/Third_Party/FreeRTOS/Source/CMSIS_RTOS/cmsis_os.c ****   (void) signals;
 582:Middlewares/Third_Party/FreeRTOS/Source/CMSIS_RTOS/cmsis_os.c ****   (void) millisec;
 583:Middlewares/Third_Party/FreeRTOS/Source/CMSIS_RTOS/cmsis_os.c **** 	
 584:Middlewares/Third_Party/FreeRTOS/Source/CMSIS_RTOS/cmsis_os.c ****   ret.status =  osErrorOS;	/* Task Notification not supported */
 585:Middlewares/Third_Party/FreeRTOS/Source/CMSIS_RTOS/cmsis_os.c **** #endif
 586:Middlewares/Third_Party/FreeRTOS/Source/CMSIS_RTOS/cmsis_os.c ****   
 587:Middlewares/Third_Party/FreeRTOS/Source/CMSIS_RTOS/cmsis_os.c ****   return ret;
 829              		.loc 1 587 3 is_stmt 1 view .LVU176
 830              		.loc 1 587 10 is_stmt 0 view .LVU177
 831 0018 04AB     		add	r3, sp, #16
 832 001a 13E90700 		ldmdb	r3, {r0, r1, r2}
 833 001e 84E80700 		stm	r4, {r0, r1, r2}
 588:Middlewares/Third_Party/FreeRTOS/Source/CMSIS_RTOS/cmsis_os.c **** }
 834              		.loc 1 588 1 view .LVU178
 835 0022 2046     		mov	r0, r4
 836 0024 04B0     		add	sp, sp, #16
 837              	.LCFI18:
 838              		.cfi_remember_state
 839              		.cfi_def_cfa_offset 16
 840              		@ sp needed
 841 0026 70BD     		pop	{r4, r5, r6, pc}
 842              	.LVL57:
 843              	.L52:
 844              	.LCFI19:
 845              		.cfi_restore_state
 569:Middlewares/Third_Party/FreeRTOS/Source/CMSIS_RTOS/cmsis_os.c ****     {
 846              		.loc 1 569 5 is_stmt 1 view .LVU179
 569:Middlewares/Third_Party/FreeRTOS/Source/CMSIS_RTOS/cmsis_os.c ****     {
 847              		.loc 1 569 8 is_stmt 0 view .LVU180
 848 0028 2B46     		mov	r3, r5
 849 002a 02AA     		add	r2, sp, #8
 850 002c 3146     		mov	r1, r6
 851 002e 0020     		movs	r0, #0
 852 0030 FFF7FEFF 		bl	xTaskNotifyWait
 853              	.LVL58:
 569:Middlewares/Third_Party/FreeRTOS/Source/CMSIS_RTOS/cmsis_os.c ****     {
 854              		.loc 1 569 7 view .LVU181
 855 0034 0128     		cmp	r0, #1
 856 0036 06D0     		beq	.L54
 571:Middlewares/Third_Party/FreeRTOS/Source/CMSIS_RTOS/cmsis_os.c ****       else  ret.status = osEventTimeout;
 857              		.loc 1 571 7 is_stmt 1 view .LVU182
 571:Middlewares/Third_Party/FreeRTOS/Source/CMSIS_RTOS/cmsis_os.c ****       else  ret.status = osEventTimeout;
 858              		.loc 1 571 9 is_stmt 0 view .LVU183
 859 0038 15B9     		cbnz	r5, .L55
 571:Middlewares/Third_Party/FreeRTOS/Source/CMSIS_RTOS/cmsis_os.c ****       else  ret.status = osEventTimeout;
 860              		.loc 1 571 23 is_stmt 1 discriminator 1 view .LVU184
 571:Middlewares/Third_Party/FreeRTOS/Source/CMSIS_RTOS/cmsis_os.c ****       else  ret.status = osEventTimeout;
 861              		.loc 1 571 34 is_stmt 0 discriminator 1 view .LVU185
 862 003a 0023     		movs	r3, #0
 863 003c 0193     		str	r3, [sp, #4]
 864 003e EBE7     		b	.L53
 865              	.L55:
 572:Middlewares/Third_Party/FreeRTOS/Source/CMSIS_RTOS/cmsis_os.c ****     }
 866              		.loc 1 572 13 is_stmt 1 view .LVU186
ARM GAS  C:\Users\LJH\AppData\Local\Temp\ccdyqIDU.s 			page 30


 572:Middlewares/Third_Party/FreeRTOS/Source/CMSIS_RTOS/cmsis_os.c ****     }
 867              		.loc 1 572 24 is_stmt 0 view .LVU187
 868 0040 4023     		movs	r3, #64
 869 0042 0193     		str	r3, [sp, #4]
 870 0044 E8E7     		b	.L53
 871              	.L54:
 574:Middlewares/Third_Party/FreeRTOS/Source/CMSIS_RTOS/cmsis_os.c ****     {
 872              		.loc 1 574 10 is_stmt 1 view .LVU188
 574:Middlewares/Third_Party/FreeRTOS/Source/CMSIS_RTOS/cmsis_os.c ****     {
 873              		.loc 1 574 22 is_stmt 0 view .LVU189
 874 0046 029B     		ldr	r3, [sp, #8]
 574:Middlewares/Third_Party/FreeRTOS/Source/CMSIS_RTOS/cmsis_os.c ****     {
 875              		.loc 1 574 12 view .LVU190
 876 0048 002B     		cmp	r3, #0
 877 004a 02DB     		blt	.L58
 578:Middlewares/Third_Party/FreeRTOS/Source/CMSIS_RTOS/cmsis_os.c ****   }
 878              		.loc 1 578 11 is_stmt 1 view .LVU191
 578:Middlewares/Third_Party/FreeRTOS/Source/CMSIS_RTOS/cmsis_os.c ****   }
 879              		.loc 1 578 22 is_stmt 0 view .LVU192
 880 004c 0823     		movs	r3, #8
 881 004e 0193     		str	r3, [sp, #4]
 882 0050 E2E7     		b	.L53
 883              	.L58:
 576:Middlewares/Third_Party/FreeRTOS/Source/CMSIS_RTOS/cmsis_os.c ****     }
 884              		.loc 1 576 7 is_stmt 1 view .LVU193
 576:Middlewares/Third_Party/FreeRTOS/Source/CMSIS_RTOS/cmsis_os.c ****     }
 885              		.loc 1 576 18 is_stmt 0 view .LVU194
 886 0052 8623     		movs	r3, #134
 887 0054 0193     		str	r3, [sp, #4]
 888 0056 DFE7     		b	.L53
 889              		.cfi_endproc
 890              	.LFE67:
 892              		.section	.text.osMutexCreate,"ax",%progbits
 893              		.align	1
 894              		.global	osMutexCreate
 895              		.syntax unified
 896              		.thumb
 897              		.thumb_func
 899              	osMutexCreate:
 900              	.LVL59:
 901              	.LFB68:
 589:Middlewares/Third_Party/FreeRTOS/Source/CMSIS_RTOS/cmsis_os.c **** 
 590:Middlewares/Third_Party/FreeRTOS/Source/CMSIS_RTOS/cmsis_os.c **** /****************************  Mutex Management ********************************/
 591:Middlewares/Third_Party/FreeRTOS/Source/CMSIS_RTOS/cmsis_os.c **** /**
 592:Middlewares/Third_Party/FreeRTOS/Source/CMSIS_RTOS/cmsis_os.c **** * @brief  Create and Initialize a Mutex object
 593:Middlewares/Third_Party/FreeRTOS/Source/CMSIS_RTOS/cmsis_os.c **** * @param  mutex_def     mutex definition referenced with \ref osMutex.
 594:Middlewares/Third_Party/FreeRTOS/Source/CMSIS_RTOS/cmsis_os.c **** * @retval  mutex ID for reference by other functions or NULL in case of error.
 595:Middlewares/Third_Party/FreeRTOS/Source/CMSIS_RTOS/cmsis_os.c **** * @note   MUST REMAIN UNCHANGED: \b osMutexCreate shall be consistent in every CMSIS-RTOS.
 596:Middlewares/Third_Party/FreeRTOS/Source/CMSIS_RTOS/cmsis_os.c **** */
 597:Middlewares/Third_Party/FreeRTOS/Source/CMSIS_RTOS/cmsis_os.c **** osMutexId osMutexCreate (const osMutexDef_t *mutex_def)
 598:Middlewares/Third_Party/FreeRTOS/Source/CMSIS_RTOS/cmsis_os.c **** {
 902              		.loc 1 598 1 is_stmt 1 view -0
 903              		.cfi_startproc
 904              		@ args = 0, pretend = 0, frame = 0
 905              		@ frame_needed = 0, uses_anonymous_args = 0
 906              		.loc 1 598 1 is_stmt 0 view .LVU196
 907 0000 08B5     		push	{r3, lr}
ARM GAS  C:\Users\LJH\AppData\Local\Temp\ccdyqIDU.s 			page 31


 908              	.LCFI20:
 909              		.cfi_def_cfa_offset 8
 910              		.cfi_offset 3, -8
 911              		.cfi_offset 14, -4
 599:Middlewares/Third_Party/FreeRTOS/Source/CMSIS_RTOS/cmsis_os.c **** #if ( configUSE_MUTEXES == 1)
 600:Middlewares/Third_Party/FreeRTOS/Source/CMSIS_RTOS/cmsis_os.c **** 
 601:Middlewares/Third_Party/FreeRTOS/Source/CMSIS_RTOS/cmsis_os.c **** #if( configSUPPORT_STATIC_ALLOCATION == 1 ) && ( configSUPPORT_DYNAMIC_ALLOCATION == 1 )
 602:Middlewares/Third_Party/FreeRTOS/Source/CMSIS_RTOS/cmsis_os.c **** 
 603:Middlewares/Third_Party/FreeRTOS/Source/CMSIS_RTOS/cmsis_os.c ****   if (mutex_def->controlblock != NULL) {
 912              		.loc 1 603 3 is_stmt 1 view .LVU197
 913              		.loc 1 603 16 is_stmt 0 view .LVU198
 914 0002 4168     		ldr	r1, [r0, #4]
 915              		.loc 1 603 6 view .LVU199
 916 0004 19B1     		cbz	r1, .L60
 604:Middlewares/Third_Party/FreeRTOS/Source/CMSIS_RTOS/cmsis_os.c ****     return xSemaphoreCreateMutexStatic( mutex_def->controlblock );
 917              		.loc 1 604 5 is_stmt 1 view .LVU200
 918              		.loc 1 604 12 is_stmt 0 view .LVU201
 919 0006 0120     		movs	r0, #1
 920              	.LVL60:
 921              		.loc 1 604 12 view .LVU202
 922 0008 FFF7FEFF 		bl	xQueueCreateMutexStatic
 923              	.LVL61:
 924              	.L59:
 605:Middlewares/Third_Party/FreeRTOS/Source/CMSIS_RTOS/cmsis_os.c ****      }
 606:Middlewares/Third_Party/FreeRTOS/Source/CMSIS_RTOS/cmsis_os.c ****   else {
 607:Middlewares/Third_Party/FreeRTOS/Source/CMSIS_RTOS/cmsis_os.c ****     return xSemaphoreCreateMutex(); 
 608:Middlewares/Third_Party/FreeRTOS/Source/CMSIS_RTOS/cmsis_os.c ****   }
 609:Middlewares/Third_Party/FreeRTOS/Source/CMSIS_RTOS/cmsis_os.c **** #elif ( configSUPPORT_STATIC_ALLOCATION == 1 )
 610:Middlewares/Third_Party/FreeRTOS/Source/CMSIS_RTOS/cmsis_os.c ****   return xSemaphoreCreateMutexStatic( mutex_def->controlblock );
 611:Middlewares/Third_Party/FreeRTOS/Source/CMSIS_RTOS/cmsis_os.c **** #else  
 612:Middlewares/Third_Party/FreeRTOS/Source/CMSIS_RTOS/cmsis_os.c ****     return xSemaphoreCreateMutex(); 
 613:Middlewares/Third_Party/FreeRTOS/Source/CMSIS_RTOS/cmsis_os.c **** #endif
 614:Middlewares/Third_Party/FreeRTOS/Source/CMSIS_RTOS/cmsis_os.c **** #else
 615:Middlewares/Third_Party/FreeRTOS/Source/CMSIS_RTOS/cmsis_os.c ****   return NULL;
 616:Middlewares/Third_Party/FreeRTOS/Source/CMSIS_RTOS/cmsis_os.c **** #endif
 617:Middlewares/Third_Party/FreeRTOS/Source/CMSIS_RTOS/cmsis_os.c **** }
 925              		.loc 1 617 1 view .LVU203
 926 000c 08BD     		pop	{r3, pc}
 927              	.LVL62:
 928              	.L60:
 607:Middlewares/Third_Party/FreeRTOS/Source/CMSIS_RTOS/cmsis_os.c ****   }
 929              		.loc 1 607 5 is_stmt 1 view .LVU204
 607:Middlewares/Third_Party/FreeRTOS/Source/CMSIS_RTOS/cmsis_os.c ****   }
 930              		.loc 1 607 12 is_stmt 0 view .LVU205
 931 000e 0120     		movs	r0, #1
 932              	.LVL63:
 607:Middlewares/Third_Party/FreeRTOS/Source/CMSIS_RTOS/cmsis_os.c ****   }
 933              		.loc 1 607 12 view .LVU206
 934 0010 FFF7FEFF 		bl	xQueueCreateMutex
 935              	.LVL64:
 936 0014 FAE7     		b	.L59
 937              		.cfi_endproc
 938              	.LFE68:
 940              		.section	.text.osMutexWait,"ax",%progbits
 941              		.align	1
 942              		.global	osMutexWait
 943              		.syntax unified
ARM GAS  C:\Users\LJH\AppData\Local\Temp\ccdyqIDU.s 			page 32


 944              		.thumb
 945              		.thumb_func
 947              	osMutexWait:
 948              	.LVL65:
 949              	.LFB69:
 618:Middlewares/Third_Party/FreeRTOS/Source/CMSIS_RTOS/cmsis_os.c **** 
 619:Middlewares/Third_Party/FreeRTOS/Source/CMSIS_RTOS/cmsis_os.c **** /**
 620:Middlewares/Third_Party/FreeRTOS/Source/CMSIS_RTOS/cmsis_os.c **** * @brief Wait until a Mutex becomes available
 621:Middlewares/Third_Party/FreeRTOS/Source/CMSIS_RTOS/cmsis_os.c **** * @param mutex_id      mutex ID obtained by \ref osMutexCreate.
 622:Middlewares/Third_Party/FreeRTOS/Source/CMSIS_RTOS/cmsis_os.c **** * @param millisec      timeout value or 0 in case of no time-out.
 623:Middlewares/Third_Party/FreeRTOS/Source/CMSIS_RTOS/cmsis_os.c **** * @retval  status code that indicates the execution status of the function.
 624:Middlewares/Third_Party/FreeRTOS/Source/CMSIS_RTOS/cmsis_os.c **** * @note   MUST REMAIN UNCHANGED: \b osMutexWait shall be consistent in every CMSIS-RTOS.
 625:Middlewares/Third_Party/FreeRTOS/Source/CMSIS_RTOS/cmsis_os.c **** */
 626:Middlewares/Third_Party/FreeRTOS/Source/CMSIS_RTOS/cmsis_os.c **** osStatus osMutexWait (osMutexId mutex_id, uint32_t millisec)
 627:Middlewares/Third_Party/FreeRTOS/Source/CMSIS_RTOS/cmsis_os.c **** {
 950              		.loc 1 627 1 is_stmt 1 view -0
 951              		.cfi_startproc
 952              		@ args = 0, pretend = 0, frame = 8
 953              		@ frame_needed = 0, uses_anonymous_args = 0
 954              		.loc 1 627 1 is_stmt 0 view .LVU208
 955 0000 30B5     		push	{r4, r5, lr}
 956              	.LCFI21:
 957              		.cfi_def_cfa_offset 12
 958              		.cfi_offset 4, -12
 959              		.cfi_offset 5, -8
 960              		.cfi_offset 14, -4
 961 0002 83B0     		sub	sp, sp, #12
 962              	.LCFI22:
 963              		.cfi_def_cfa_offset 24
 628:Middlewares/Third_Party/FreeRTOS/Source/CMSIS_RTOS/cmsis_os.c ****   TickType_t ticks;
 964              		.loc 1 628 3 is_stmt 1 view .LVU209
 629:Middlewares/Third_Party/FreeRTOS/Source/CMSIS_RTOS/cmsis_os.c ****   portBASE_TYPE taskWoken = pdFALSE;  
 965              		.loc 1 629 3 view .LVU210
 966              		.loc 1 629 17 is_stmt 0 view .LVU211
 967 0004 0023     		movs	r3, #0
 968 0006 0193     		str	r3, [sp, #4]
 630:Middlewares/Third_Party/FreeRTOS/Source/CMSIS_RTOS/cmsis_os.c ****   
 631:Middlewares/Third_Party/FreeRTOS/Source/CMSIS_RTOS/cmsis_os.c ****   
 632:Middlewares/Third_Party/FreeRTOS/Source/CMSIS_RTOS/cmsis_os.c ****   if (mutex_id == NULL) {
 969              		.loc 1 632 3 is_stmt 1 view .LVU212
 970              		.loc 1 632 6 is_stmt 0 view .LVU213
 971 0008 10B3     		cbz	r0, .L66
 972 000a 0C46     		mov	r4, r1
 973 000c 0546     		mov	r5, r0
 633:Middlewares/Third_Party/FreeRTOS/Source/CMSIS_RTOS/cmsis_os.c ****     return osErrorParameter;
 634:Middlewares/Third_Party/FreeRTOS/Source/CMSIS_RTOS/cmsis_os.c ****   }
 635:Middlewares/Third_Party/FreeRTOS/Source/CMSIS_RTOS/cmsis_os.c ****   
 636:Middlewares/Third_Party/FreeRTOS/Source/CMSIS_RTOS/cmsis_os.c ****   ticks = 0;
 974              		.loc 1 636 3 is_stmt 1 view .LVU214
 975              	.LVL66:
 637:Middlewares/Third_Party/FreeRTOS/Source/CMSIS_RTOS/cmsis_os.c ****   if (millisec == osWaitForever) {
 976              		.loc 1 637 3 view .LVU215
 638:Middlewares/Third_Party/FreeRTOS/Source/CMSIS_RTOS/cmsis_os.c ****     ticks = portMAX_DELAY;
 639:Middlewares/Third_Party/FreeRTOS/Source/CMSIS_RTOS/cmsis_os.c ****   }
 640:Middlewares/Third_Party/FreeRTOS/Source/CMSIS_RTOS/cmsis_os.c ****   else if (millisec != 0) {
 641:Middlewares/Third_Party/FreeRTOS/Source/CMSIS_RTOS/cmsis_os.c ****     ticks = millisec / portTICK_PERIOD_MS;
 642:Middlewares/Third_Party/FreeRTOS/Source/CMSIS_RTOS/cmsis_os.c ****     if (ticks == 0) {
ARM GAS  C:\Users\LJH\AppData\Local\Temp\ccdyqIDU.s 			page 33


 643:Middlewares/Third_Party/FreeRTOS/Source/CMSIS_RTOS/cmsis_os.c ****       ticks = 1;
 644:Middlewares/Third_Party/FreeRTOS/Source/CMSIS_RTOS/cmsis_os.c ****     }
 645:Middlewares/Third_Party/FreeRTOS/Source/CMSIS_RTOS/cmsis_os.c ****   }
 646:Middlewares/Third_Party/FreeRTOS/Source/CMSIS_RTOS/cmsis_os.c ****   
 647:Middlewares/Third_Party/FreeRTOS/Source/CMSIS_RTOS/cmsis_os.c ****   if (inHandlerMode()) {
 977              		.loc 1 647 3 view .LVU216
 978              		.loc 1 647 7 is_stmt 0 view .LVU217
 979 000e FFF7FEFF 		bl	inHandlerMode
 980              	.LVL67:
 981              		.loc 1 647 6 view .LVU218
 982 0012 A0B1     		cbz	r0, .L65
 648:Middlewares/Third_Party/FreeRTOS/Source/CMSIS_RTOS/cmsis_os.c ****     if (xSemaphoreTakeFromISR(mutex_id, &taskWoken) != pdTRUE) {
 983              		.loc 1 648 5 is_stmt 1 view .LVU219
 984              		.loc 1 648 9 is_stmt 0 view .LVU220
 985 0014 01AA     		add	r2, sp, #4
 986 0016 0021     		movs	r1, #0
 987 0018 2846     		mov	r0, r5
 988 001a FFF7FEFF 		bl	xQueueReceiveFromISR
 989              	.LVL68:
 990              		.loc 1 648 8 view .LVU221
 991 001e 0128     		cmp	r0, #1
 992 0020 18D1     		bne	.L67
 649:Middlewares/Third_Party/FreeRTOS/Source/CMSIS_RTOS/cmsis_os.c ****       return osErrorOS;
 650:Middlewares/Third_Party/FreeRTOS/Source/CMSIS_RTOS/cmsis_os.c ****     }
 651:Middlewares/Third_Party/FreeRTOS/Source/CMSIS_RTOS/cmsis_os.c **** 	portEND_SWITCHING_ISR(taskWoken);
 993              		.loc 1 651 2 is_stmt 1 view .LVU222
 994 0022 019B     		ldr	r3, [sp, #4]
 995 0024 C3B1     		cbz	r3, .L68
 996              		.loc 1 651 2 discriminator 1 view .LVU223
 997 0026 4FF0E023 		mov	r3, #-536813568
 998 002a 4FF08052 		mov	r2, #268435456
 999 002e C3F8042D 		str	r2, [r3, #3332]
 1000              		.loc 1 651 2 discriminator 1 view .LVU224
 1001              		.syntax unified
 1002              	@ 651 "Middlewares/Third_Party/FreeRTOS/Source/CMSIS_RTOS/cmsis_os.c" 1
 1003 0032 BFF34F8F 		dsb
 1004              	@ 0 "" 2
 1005              		.loc 1 651 2 discriminator 1 view .LVU225
 1006              	@ 651 "Middlewares/Third_Party/FreeRTOS/Source/CMSIS_RTOS/cmsis_os.c" 1
 1007 0036 BFF36F8F 		isb
 1008              	@ 0 "" 2
 652:Middlewares/Third_Party/FreeRTOS/Source/CMSIS_RTOS/cmsis_os.c ****   } 
 653:Middlewares/Third_Party/FreeRTOS/Source/CMSIS_RTOS/cmsis_os.c ****   else if (xSemaphoreTake(mutex_id, ticks) != pdTRUE) {
 654:Middlewares/Third_Party/FreeRTOS/Source/CMSIS_RTOS/cmsis_os.c ****     return osErrorOS;
 655:Middlewares/Third_Party/FreeRTOS/Source/CMSIS_RTOS/cmsis_os.c ****   }
 656:Middlewares/Third_Party/FreeRTOS/Source/CMSIS_RTOS/cmsis_os.c ****   
 657:Middlewares/Third_Party/FreeRTOS/Source/CMSIS_RTOS/cmsis_os.c ****   return osOK;
 1009              		.loc 1 657 10 is_stmt 0 discriminator 1 view .LVU226
 1010              		.thumb
 1011              		.syntax unified
 1012 003a 0020     		movs	r0, #0
 1013 003c 06E0     		b	.L63
 1014              	.L65:
 653:Middlewares/Third_Party/FreeRTOS/Source/CMSIS_RTOS/cmsis_os.c ****     return osErrorOS;
 1015              		.loc 1 653 8 is_stmt 1 view .LVU227
 653:Middlewares/Third_Party/FreeRTOS/Source/CMSIS_RTOS/cmsis_os.c ****     return osErrorOS;
 1016              		.loc 1 653 12 is_stmt 0 view .LVU228
ARM GAS  C:\Users\LJH\AppData\Local\Temp\ccdyqIDU.s 			page 34


 1017 003e 2146     		mov	r1, r4
 1018 0040 2846     		mov	r0, r5
 1019 0042 FFF7FEFF 		bl	xQueueSemaphoreTake
 1020              	.LVL69:
 653:Middlewares/Third_Party/FreeRTOS/Source/CMSIS_RTOS/cmsis_os.c ****     return osErrorOS;
 1021              		.loc 1 653 11 view .LVU229
 1022 0046 0128     		cmp	r0, #1
 1023 0048 08D1     		bne	.L69
 1024              		.loc 1 657 10 view .LVU230
 1025 004a 0020     		movs	r0, #0
 1026              	.LVL70:
 1027              	.L63:
 658:Middlewares/Third_Party/FreeRTOS/Source/CMSIS_RTOS/cmsis_os.c **** }
 1028              		.loc 1 658 1 view .LVU231
 1029 004c 03B0     		add	sp, sp, #12
 1030              	.LCFI23:
 1031              		.cfi_remember_state
 1032              		.cfi_def_cfa_offset 12
 1033              		@ sp needed
 1034 004e 30BD     		pop	{r4, r5, pc}
 1035              	.LVL71:
 1036              	.L66:
 1037              	.LCFI24:
 1038              		.cfi_restore_state
 633:Middlewares/Third_Party/FreeRTOS/Source/CMSIS_RTOS/cmsis_os.c ****   }
 1039              		.loc 1 633 12 view .LVU232
 1040 0050 8020     		movs	r0, #128
 1041              	.LVL72:
 633:Middlewares/Third_Party/FreeRTOS/Source/CMSIS_RTOS/cmsis_os.c ****   }
 1042              		.loc 1 633 12 view .LVU233
 1043 0052 FBE7     		b	.L63
 1044              	.LVL73:
 1045              	.L67:
 649:Middlewares/Third_Party/FreeRTOS/Source/CMSIS_RTOS/cmsis_os.c ****     }
 1046              		.loc 1 649 14 view .LVU234
 1047 0054 FF20     		movs	r0, #255
 1048 0056 F9E7     		b	.L63
 1049              	.L68:
 657:Middlewares/Third_Party/FreeRTOS/Source/CMSIS_RTOS/cmsis_os.c **** }
 1050              		.loc 1 657 10 view .LVU235
 1051 0058 0020     		movs	r0, #0
 1052 005a F7E7     		b	.L63
 1053              	.L69:
 654:Middlewares/Third_Party/FreeRTOS/Source/CMSIS_RTOS/cmsis_os.c ****   }
 1054              		.loc 1 654 12 view .LVU236
 1055 005c FF20     		movs	r0, #255
 1056 005e F5E7     		b	.L63
 1057              		.cfi_endproc
 1058              	.LFE69:
 1060              		.section	.text.osMutexRelease,"ax",%progbits
 1061              		.align	1
 1062              		.global	osMutexRelease
 1063              		.syntax unified
 1064              		.thumb
 1065              		.thumb_func
 1067              	osMutexRelease:
 1068              	.LVL74:
ARM GAS  C:\Users\LJH\AppData\Local\Temp\ccdyqIDU.s 			page 35


 1069              	.LFB70:
 659:Middlewares/Third_Party/FreeRTOS/Source/CMSIS_RTOS/cmsis_os.c **** 
 660:Middlewares/Third_Party/FreeRTOS/Source/CMSIS_RTOS/cmsis_os.c **** /**
 661:Middlewares/Third_Party/FreeRTOS/Source/CMSIS_RTOS/cmsis_os.c **** * @brief Release a Mutex that was obtained by \ref osMutexWait
 662:Middlewares/Third_Party/FreeRTOS/Source/CMSIS_RTOS/cmsis_os.c **** * @param mutex_id      mutex ID obtained by \ref osMutexCreate.
 663:Middlewares/Third_Party/FreeRTOS/Source/CMSIS_RTOS/cmsis_os.c **** * @retval  status code that indicates the execution status of the function.
 664:Middlewares/Third_Party/FreeRTOS/Source/CMSIS_RTOS/cmsis_os.c **** * @note   MUST REMAIN UNCHANGED: \b osMutexRelease shall be consistent in every CMSIS-RTOS.
 665:Middlewares/Third_Party/FreeRTOS/Source/CMSIS_RTOS/cmsis_os.c **** */
 666:Middlewares/Third_Party/FreeRTOS/Source/CMSIS_RTOS/cmsis_os.c **** osStatus osMutexRelease (osMutexId mutex_id)
 667:Middlewares/Third_Party/FreeRTOS/Source/CMSIS_RTOS/cmsis_os.c **** {
 1070              		.loc 1 667 1 is_stmt 1 view -0
 1071              		.cfi_startproc
 1072              		@ args = 0, pretend = 0, frame = 8
 1073              		@ frame_needed = 0, uses_anonymous_args = 0
 1074              		.loc 1 667 1 is_stmt 0 view .LVU238
 1075 0000 10B5     		push	{r4, lr}
 1076              	.LCFI25:
 1077              		.cfi_def_cfa_offset 8
 1078              		.cfi_offset 4, -8
 1079              		.cfi_offset 14, -4
 1080 0002 82B0     		sub	sp, sp, #8
 1081              	.LCFI26:
 1082              		.cfi_def_cfa_offset 16
 1083 0004 0446     		mov	r4, r0
 668:Middlewares/Third_Party/FreeRTOS/Source/CMSIS_RTOS/cmsis_os.c ****   osStatus result = osOK;
 1084              		.loc 1 668 3 is_stmt 1 view .LVU239
 1085              	.LVL75:
 669:Middlewares/Third_Party/FreeRTOS/Source/CMSIS_RTOS/cmsis_os.c ****   portBASE_TYPE taskWoken = pdFALSE;
 1086              		.loc 1 669 3 view .LVU240
 1087              		.loc 1 669 17 is_stmt 0 view .LVU241
 1088 0006 0023     		movs	r3, #0
 1089 0008 0193     		str	r3, [sp, #4]
 670:Middlewares/Third_Party/FreeRTOS/Source/CMSIS_RTOS/cmsis_os.c ****   
 671:Middlewares/Third_Party/FreeRTOS/Source/CMSIS_RTOS/cmsis_os.c ****   if (inHandlerMode()) {
 1090              		.loc 1 671 3 is_stmt 1 view .LVU242
 1091              		.loc 1 671 7 is_stmt 0 view .LVU243
 1092 000a FFF7FEFF 		bl	inHandlerMode
 1093              	.LVL76:
 1094              		.loc 1 671 6 view .LVU244
 1095 000e 98B1     		cbz	r0, .L72
 672:Middlewares/Third_Party/FreeRTOS/Source/CMSIS_RTOS/cmsis_os.c ****     if (xSemaphoreGiveFromISR(mutex_id, &taskWoken) != pdTRUE) {
 1096              		.loc 1 672 5 is_stmt 1 view .LVU245
 1097              		.loc 1 672 9 is_stmt 0 view .LVU246
 1098 0010 01A9     		add	r1, sp, #4
 1099 0012 2046     		mov	r0, r4
 1100 0014 FFF7FEFF 		bl	xQueueGiveFromISR
 1101              	.LVL77:
 1102              		.loc 1 672 8 view .LVU247
 1103 0018 0128     		cmp	r0, #1
 1104 001a 1AD1     		bne	.L74
 673:Middlewares/Third_Party/FreeRTOS/Source/CMSIS_RTOS/cmsis_os.c ****       return osErrorOS;
 674:Middlewares/Third_Party/FreeRTOS/Source/CMSIS_RTOS/cmsis_os.c ****     }
 675:Middlewares/Third_Party/FreeRTOS/Source/CMSIS_RTOS/cmsis_os.c ****     portEND_SWITCHING_ISR(taskWoken);
 1105              		.loc 1 675 5 is_stmt 1 view .LVU248
 1106 001c 019B     		ldr	r3, [sp, #4]
 1107 001e D3B1     		cbz	r3, .L75
 1108              		.loc 1 675 5 discriminator 1 view .LVU249
ARM GAS  C:\Users\LJH\AppData\Local\Temp\ccdyqIDU.s 			page 36


 1109 0020 4FF0E023 		mov	r3, #-536813568
 1110 0024 4FF08052 		mov	r2, #268435456
 1111 0028 C3F8042D 		str	r2, [r3, #3332]
 1112              		.loc 1 675 5 discriminator 1 view .LVU250
 1113              		.syntax unified
 1114              	@ 675 "Middlewares/Third_Party/FreeRTOS/Source/CMSIS_RTOS/cmsis_os.c" 1
 1115 002c BFF34F8F 		dsb
 1116              	@ 0 "" 2
 1117              		.loc 1 675 5 discriminator 1 view .LVU251
 1118              	@ 675 "Middlewares/Third_Party/FreeRTOS/Source/CMSIS_RTOS/cmsis_os.c" 1
 1119 0030 BFF36F8F 		isb
 1120              	@ 0 "" 2
 668:Middlewares/Third_Party/FreeRTOS/Source/CMSIS_RTOS/cmsis_os.c ****   portBASE_TYPE taskWoken = pdFALSE;
 1121              		.loc 1 668 12 is_stmt 0 discriminator 1 view .LVU252
 1122              		.thumb
 1123              		.syntax unified
 1124 0034 0020     		movs	r0, #0
 1125 0036 08E0     		b	.L71
 1126              	.L72:
 676:Middlewares/Third_Party/FreeRTOS/Source/CMSIS_RTOS/cmsis_os.c ****   }
 677:Middlewares/Third_Party/FreeRTOS/Source/CMSIS_RTOS/cmsis_os.c ****   else if (xSemaphoreGive(mutex_id) != pdTRUE) 
 1127              		.loc 1 677 8 is_stmt 1 view .LVU253
 1128              		.loc 1 677 12 is_stmt 0 view .LVU254
 1129 0038 0023     		movs	r3, #0
 1130 003a 1A46     		mov	r2, r3
 1131 003c 1946     		mov	r1, r3
 1132 003e 2046     		mov	r0, r4
 1133 0040 FFF7FEFF 		bl	xQueueGenericSend
 1134              	.LVL78:
 1135              		.loc 1 677 11 view .LVU255
 1136 0044 0128     		cmp	r0, #1
 1137 0046 02D0     		beq	.L78
 678:Middlewares/Third_Party/FreeRTOS/Source/CMSIS_RTOS/cmsis_os.c ****   {
 679:Middlewares/Third_Party/FreeRTOS/Source/CMSIS_RTOS/cmsis_os.c ****     result = osErrorOS;
 1138              		.loc 1 679 12 view .LVU256
 1139 0048 FF20     		movs	r0, #255
 1140              	.LVL79:
 1141              	.L71:
 680:Middlewares/Third_Party/FreeRTOS/Source/CMSIS_RTOS/cmsis_os.c ****   }
 681:Middlewares/Third_Party/FreeRTOS/Source/CMSIS_RTOS/cmsis_os.c ****   return result;
 682:Middlewares/Third_Party/FreeRTOS/Source/CMSIS_RTOS/cmsis_os.c **** }
 1142              		.loc 1 682 1 view .LVU257
 1143 004a 02B0     		add	sp, sp, #8
 1144              	.LCFI27:
 1145              		.cfi_remember_state
 1146              		.cfi_def_cfa_offset 8
 1147              		@ sp needed
 1148 004c 10BD     		pop	{r4, pc}
 1149              	.LVL80:
 1150              	.L78:
 1151              	.LCFI28:
 1152              		.cfi_restore_state
 668:Middlewares/Third_Party/FreeRTOS/Source/CMSIS_RTOS/cmsis_os.c ****   portBASE_TYPE taskWoken = pdFALSE;
 1153              		.loc 1 668 12 view .LVU258
 1154 004e 0020     		movs	r0, #0
 1155 0050 FBE7     		b	.L71
 1156              	.L74:
ARM GAS  C:\Users\LJH\AppData\Local\Temp\ccdyqIDU.s 			page 37


 673:Middlewares/Third_Party/FreeRTOS/Source/CMSIS_RTOS/cmsis_os.c ****     }
 1157              		.loc 1 673 14 view .LVU259
 1158 0052 FF20     		movs	r0, #255
 1159 0054 F9E7     		b	.L71
 1160              	.L75:
 668:Middlewares/Third_Party/FreeRTOS/Source/CMSIS_RTOS/cmsis_os.c ****   portBASE_TYPE taskWoken = pdFALSE;
 1161              		.loc 1 668 12 view .LVU260
 1162 0056 0020     		movs	r0, #0
 1163 0058 F7E7     		b	.L71
 1164              		.cfi_endproc
 1165              	.LFE70:
 1167              		.section	.text.osMutexDelete,"ax",%progbits
 1168              		.align	1
 1169              		.global	osMutexDelete
 1170              		.syntax unified
 1171              		.thumb
 1172              		.thumb_func
 1174              	osMutexDelete:
 1175              	.LVL81:
 1176              	.LFB71:
 683:Middlewares/Third_Party/FreeRTOS/Source/CMSIS_RTOS/cmsis_os.c **** 
 684:Middlewares/Third_Party/FreeRTOS/Source/CMSIS_RTOS/cmsis_os.c **** /**
 685:Middlewares/Third_Party/FreeRTOS/Source/CMSIS_RTOS/cmsis_os.c **** * @brief Delete a Mutex
 686:Middlewares/Third_Party/FreeRTOS/Source/CMSIS_RTOS/cmsis_os.c **** * @param mutex_id  mutex ID obtained by \ref osMutexCreate.
 687:Middlewares/Third_Party/FreeRTOS/Source/CMSIS_RTOS/cmsis_os.c **** * @retval  status code that indicates the execution status of the function.
 688:Middlewares/Third_Party/FreeRTOS/Source/CMSIS_RTOS/cmsis_os.c **** * @note   MUST REMAIN UNCHANGED: \b osMutexDelete shall be consistent in every CMSIS-RTOS.
 689:Middlewares/Third_Party/FreeRTOS/Source/CMSIS_RTOS/cmsis_os.c **** */
 690:Middlewares/Third_Party/FreeRTOS/Source/CMSIS_RTOS/cmsis_os.c **** osStatus osMutexDelete (osMutexId mutex_id)
 691:Middlewares/Third_Party/FreeRTOS/Source/CMSIS_RTOS/cmsis_os.c **** {
 1177              		.loc 1 691 1 is_stmt 1 view -0
 1178              		.cfi_startproc
 1179              		@ args = 0, pretend = 0, frame = 0
 1180              		@ frame_needed = 0, uses_anonymous_args = 0
 1181              		.loc 1 691 1 is_stmt 0 view .LVU262
 1182 0000 10B5     		push	{r4, lr}
 1183              	.LCFI29:
 1184              		.cfi_def_cfa_offset 8
 1185              		.cfi_offset 4, -8
 1186              		.cfi_offset 14, -4
 1187 0002 0446     		mov	r4, r0
 692:Middlewares/Third_Party/FreeRTOS/Source/CMSIS_RTOS/cmsis_os.c ****   if (inHandlerMode()) {
 1188              		.loc 1 692 3 is_stmt 1 view .LVU263
 1189              		.loc 1 692 7 is_stmt 0 view .LVU264
 1190 0004 FFF7FEFF 		bl	inHandlerMode
 1191              	.LVL82:
 1192              		.loc 1 692 6 view .LVU265
 1193 0008 20B9     		cbnz	r0, .L81
 693:Middlewares/Third_Party/FreeRTOS/Source/CMSIS_RTOS/cmsis_os.c ****     return osErrorISR;
 694:Middlewares/Third_Party/FreeRTOS/Source/CMSIS_RTOS/cmsis_os.c ****   }
 695:Middlewares/Third_Party/FreeRTOS/Source/CMSIS_RTOS/cmsis_os.c **** 
 696:Middlewares/Third_Party/FreeRTOS/Source/CMSIS_RTOS/cmsis_os.c ****   vQueueDelete(mutex_id);
 1194              		.loc 1 696 3 is_stmt 1 view .LVU266
 1195 000a 2046     		mov	r0, r4
 1196 000c FFF7FEFF 		bl	vQueueDelete
 1197              	.LVL83:
 697:Middlewares/Third_Party/FreeRTOS/Source/CMSIS_RTOS/cmsis_os.c **** 
 698:Middlewares/Third_Party/FreeRTOS/Source/CMSIS_RTOS/cmsis_os.c ****   return osOK;
ARM GAS  C:\Users\LJH\AppData\Local\Temp\ccdyqIDU.s 			page 38


 1198              		.loc 1 698 3 view .LVU267
 1199              		.loc 1 698 10 is_stmt 0 view .LVU268
 1200 0010 0020     		movs	r0, #0
 1201              	.L79:
 699:Middlewares/Third_Party/FreeRTOS/Source/CMSIS_RTOS/cmsis_os.c **** }
 1202              		.loc 1 699 1 view .LVU269
 1203 0012 10BD     		pop	{r4, pc}
 1204              	.LVL84:
 1205              	.L81:
 693:Middlewares/Third_Party/FreeRTOS/Source/CMSIS_RTOS/cmsis_os.c ****     return osErrorISR;
 1206              		.loc 1 693 12 view .LVU270
 1207 0014 8220     		movs	r0, #130
 1208 0016 FCE7     		b	.L79
 1209              		.cfi_endproc
 1210              	.LFE71:
 1212              		.section	.text.osSemaphoreCreate,"ax",%progbits
 1213              		.align	1
 1214              		.global	osSemaphoreCreate
 1215              		.syntax unified
 1216              		.thumb
 1217              		.thumb_func
 1219              	osSemaphoreCreate:
 1220              	.LVL85:
 1221              	.LFB72:
 700:Middlewares/Third_Party/FreeRTOS/Source/CMSIS_RTOS/cmsis_os.c **** 
 701:Middlewares/Third_Party/FreeRTOS/Source/CMSIS_RTOS/cmsis_os.c **** /********************  Semaphore Management Functions **************************/
 702:Middlewares/Third_Party/FreeRTOS/Source/CMSIS_RTOS/cmsis_os.c **** 
 703:Middlewares/Third_Party/FreeRTOS/Source/CMSIS_RTOS/cmsis_os.c **** #if (defined (osFeature_Semaphore)  &&  (osFeature_Semaphore != 0))
 704:Middlewares/Third_Party/FreeRTOS/Source/CMSIS_RTOS/cmsis_os.c **** 
 705:Middlewares/Third_Party/FreeRTOS/Source/CMSIS_RTOS/cmsis_os.c **** /**
 706:Middlewares/Third_Party/FreeRTOS/Source/CMSIS_RTOS/cmsis_os.c **** * @brief Create and Initialize a Semaphore object used for managing resources
 707:Middlewares/Third_Party/FreeRTOS/Source/CMSIS_RTOS/cmsis_os.c **** * @param semaphore_def semaphore definition referenced with \ref osSemaphore.
 708:Middlewares/Third_Party/FreeRTOS/Source/CMSIS_RTOS/cmsis_os.c **** * @param count         number of available resources.
 709:Middlewares/Third_Party/FreeRTOS/Source/CMSIS_RTOS/cmsis_os.c **** * @retval  semaphore ID for reference by other functions or NULL in case of error.
 710:Middlewares/Third_Party/FreeRTOS/Source/CMSIS_RTOS/cmsis_os.c **** * @note   MUST REMAIN UNCHANGED: \b osSemaphoreCreate shall be consistent in every CMSIS-RTOS.
 711:Middlewares/Third_Party/FreeRTOS/Source/CMSIS_RTOS/cmsis_os.c **** */
 712:Middlewares/Third_Party/FreeRTOS/Source/CMSIS_RTOS/cmsis_os.c **** osSemaphoreId osSemaphoreCreate (const osSemaphoreDef_t *semaphore_def, int32_t count)
 713:Middlewares/Third_Party/FreeRTOS/Source/CMSIS_RTOS/cmsis_os.c **** { 
 1222              		.loc 1 713 1 is_stmt 1 view -0
 1223              		.cfi_startproc
 1224              		@ args = 0, pretend = 0, frame = 0
 1225              		@ frame_needed = 0, uses_anonymous_args = 0
 1226              		.loc 1 713 1 is_stmt 0 view .LVU272
 1227 0000 10B5     		push	{r4, lr}
 1228              	.LCFI30:
 1229              		.cfi_def_cfa_offset 8
 1230              		.cfi_offset 4, -8
 1231              		.cfi_offset 14, -4
 1232 0002 82B0     		sub	sp, sp, #8
 1233              	.LCFI31:
 1234              		.cfi_def_cfa_offset 16
 714:Middlewares/Third_Party/FreeRTOS/Source/CMSIS_RTOS/cmsis_os.c **** #if( configSUPPORT_STATIC_ALLOCATION == 1 ) && ( configSUPPORT_DYNAMIC_ALLOCATION == 1 )
 715:Middlewares/Third_Party/FreeRTOS/Source/CMSIS_RTOS/cmsis_os.c **** 
 716:Middlewares/Third_Party/FreeRTOS/Source/CMSIS_RTOS/cmsis_os.c ****   osSemaphoreId sema;
 1235              		.loc 1 716 3 is_stmt 1 view .LVU273
 717:Middlewares/Third_Party/FreeRTOS/Source/CMSIS_RTOS/cmsis_os.c ****   
 718:Middlewares/Third_Party/FreeRTOS/Source/CMSIS_RTOS/cmsis_os.c ****   if (semaphore_def->controlblock != NULL){
ARM GAS  C:\Users\LJH\AppData\Local\Temp\ccdyqIDU.s 			page 39


 1236              		.loc 1 718 3 view .LVU274
 1237              		.loc 1 718 20 is_stmt 0 view .LVU275
 1238 0004 4468     		ldr	r4, [r0, #4]
 1239              		.loc 1 718 6 view .LVU276
 1240 0006 7CB1     		cbz	r4, .L84
 719:Middlewares/Third_Party/FreeRTOS/Source/CMSIS_RTOS/cmsis_os.c ****     if (count == 1) {
 1241              		.loc 1 719 5 is_stmt 1 view .LVU277
 1242              		.loc 1 719 8 is_stmt 0 view .LVU278
 1243 0008 0129     		cmp	r1, #1
 1244 000a 03D0     		beq	.L89
 720:Middlewares/Third_Party/FreeRTOS/Source/CMSIS_RTOS/cmsis_os.c ****       return xSemaphoreCreateBinaryStatic( semaphore_def->controlblock );
 721:Middlewares/Third_Party/FreeRTOS/Source/CMSIS_RTOS/cmsis_os.c ****     }
 722:Middlewares/Third_Party/FreeRTOS/Source/CMSIS_RTOS/cmsis_os.c ****     else {
 723:Middlewares/Third_Party/FreeRTOS/Source/CMSIS_RTOS/cmsis_os.c **** #if (configUSE_COUNTING_SEMAPHORES == 1 )
 724:Middlewares/Third_Party/FreeRTOS/Source/CMSIS_RTOS/cmsis_os.c ****       return xSemaphoreCreateCountingStatic( count, count, semaphore_def->controlblock );
 725:Middlewares/Third_Party/FreeRTOS/Source/CMSIS_RTOS/cmsis_os.c **** #else
 726:Middlewares/Third_Party/FreeRTOS/Source/CMSIS_RTOS/cmsis_os.c ****       return NULL;
 1245              		.loc 1 726 14 view .LVU279
 1246 000c 0024     		movs	r4, #0
 1247              	.LVL86:
 1248              	.L83:
 727:Middlewares/Third_Party/FreeRTOS/Source/CMSIS_RTOS/cmsis_os.c **** #endif
 728:Middlewares/Third_Party/FreeRTOS/Source/CMSIS_RTOS/cmsis_os.c ****     }
 729:Middlewares/Third_Party/FreeRTOS/Source/CMSIS_RTOS/cmsis_os.c ****   }
 730:Middlewares/Third_Party/FreeRTOS/Source/CMSIS_RTOS/cmsis_os.c ****   else {
 731:Middlewares/Third_Party/FreeRTOS/Source/CMSIS_RTOS/cmsis_os.c ****     if (count == 1) {
 732:Middlewares/Third_Party/FreeRTOS/Source/CMSIS_RTOS/cmsis_os.c ****       vSemaphoreCreateBinary(sema);
 733:Middlewares/Third_Party/FreeRTOS/Source/CMSIS_RTOS/cmsis_os.c ****       return sema;
 734:Middlewares/Third_Party/FreeRTOS/Source/CMSIS_RTOS/cmsis_os.c ****     }
 735:Middlewares/Third_Party/FreeRTOS/Source/CMSIS_RTOS/cmsis_os.c ****     else {
 736:Middlewares/Third_Party/FreeRTOS/Source/CMSIS_RTOS/cmsis_os.c **** #if (configUSE_COUNTING_SEMAPHORES == 1 )	
 737:Middlewares/Third_Party/FreeRTOS/Source/CMSIS_RTOS/cmsis_os.c ****       return xSemaphoreCreateCounting(count, count);
 738:Middlewares/Third_Party/FreeRTOS/Source/CMSIS_RTOS/cmsis_os.c **** #else
 739:Middlewares/Third_Party/FreeRTOS/Source/CMSIS_RTOS/cmsis_os.c ****       return NULL;
 740:Middlewares/Third_Party/FreeRTOS/Source/CMSIS_RTOS/cmsis_os.c **** #endif    
 741:Middlewares/Third_Party/FreeRTOS/Source/CMSIS_RTOS/cmsis_os.c ****     }
 742:Middlewares/Third_Party/FreeRTOS/Source/CMSIS_RTOS/cmsis_os.c ****   }
 743:Middlewares/Third_Party/FreeRTOS/Source/CMSIS_RTOS/cmsis_os.c **** #elif ( configSUPPORT_STATIC_ALLOCATION == 1 ) // configSUPPORT_DYNAMIC_ALLOCATION == 0
 744:Middlewares/Third_Party/FreeRTOS/Source/CMSIS_RTOS/cmsis_os.c ****   if(count == 1) {
 745:Middlewares/Third_Party/FreeRTOS/Source/CMSIS_RTOS/cmsis_os.c ****     return xSemaphoreCreateBinaryStatic( semaphore_def->controlblock );
 746:Middlewares/Third_Party/FreeRTOS/Source/CMSIS_RTOS/cmsis_os.c ****   }
 747:Middlewares/Third_Party/FreeRTOS/Source/CMSIS_RTOS/cmsis_os.c ****   else
 748:Middlewares/Third_Party/FreeRTOS/Source/CMSIS_RTOS/cmsis_os.c ****   {
 749:Middlewares/Third_Party/FreeRTOS/Source/CMSIS_RTOS/cmsis_os.c **** #if (configUSE_COUNTING_SEMAPHORES == 1 )
 750:Middlewares/Third_Party/FreeRTOS/Source/CMSIS_RTOS/cmsis_os.c ****       return xSemaphoreCreateCountingStatic( count, count, semaphore_def->controlblock );
 751:Middlewares/Third_Party/FreeRTOS/Source/CMSIS_RTOS/cmsis_os.c **** #else
 752:Middlewares/Third_Party/FreeRTOS/Source/CMSIS_RTOS/cmsis_os.c ****       return NULL;
 753:Middlewares/Third_Party/FreeRTOS/Source/CMSIS_RTOS/cmsis_os.c **** #endif    
 754:Middlewares/Third_Party/FreeRTOS/Source/CMSIS_RTOS/cmsis_os.c ****   }
 755:Middlewares/Third_Party/FreeRTOS/Source/CMSIS_RTOS/cmsis_os.c **** #else  // configSUPPORT_STATIC_ALLOCATION == 0  && configSUPPORT_DYNAMIC_ALLOCATION == 1
 756:Middlewares/Third_Party/FreeRTOS/Source/CMSIS_RTOS/cmsis_os.c ****   osSemaphoreId sema;
 757:Middlewares/Third_Party/FreeRTOS/Source/CMSIS_RTOS/cmsis_os.c ****  
 758:Middlewares/Third_Party/FreeRTOS/Source/CMSIS_RTOS/cmsis_os.c ****   if (count == 1) {
 759:Middlewares/Third_Party/FreeRTOS/Source/CMSIS_RTOS/cmsis_os.c ****     vSemaphoreCreateBinary(sema);
 760:Middlewares/Third_Party/FreeRTOS/Source/CMSIS_RTOS/cmsis_os.c ****     return sema;
 761:Middlewares/Third_Party/FreeRTOS/Source/CMSIS_RTOS/cmsis_os.c ****   }
 762:Middlewares/Third_Party/FreeRTOS/Source/CMSIS_RTOS/cmsis_os.c ****   else {
ARM GAS  C:\Users\LJH\AppData\Local\Temp\ccdyqIDU.s 			page 40


 763:Middlewares/Third_Party/FreeRTOS/Source/CMSIS_RTOS/cmsis_os.c **** #if (configUSE_COUNTING_SEMAPHORES == 1 )	
 764:Middlewares/Third_Party/FreeRTOS/Source/CMSIS_RTOS/cmsis_os.c ****     return xSemaphoreCreateCounting(count, count);
 765:Middlewares/Third_Party/FreeRTOS/Source/CMSIS_RTOS/cmsis_os.c **** #else
 766:Middlewares/Third_Party/FreeRTOS/Source/CMSIS_RTOS/cmsis_os.c ****     return NULL;
 767:Middlewares/Third_Party/FreeRTOS/Source/CMSIS_RTOS/cmsis_os.c **** #endif
 768:Middlewares/Third_Party/FreeRTOS/Source/CMSIS_RTOS/cmsis_os.c ****   }
 769:Middlewares/Third_Party/FreeRTOS/Source/CMSIS_RTOS/cmsis_os.c **** #endif
 770:Middlewares/Third_Party/FreeRTOS/Source/CMSIS_RTOS/cmsis_os.c **** }
 1249              		.loc 1 770 1 view .LVU280
 1250 000e 2046     		mov	r0, r4
 1251 0010 02B0     		add	sp, sp, #8
 1252              	.LCFI32:
 1253              		.cfi_remember_state
 1254              		.cfi_def_cfa_offset 8
 1255              		@ sp needed
 1256 0012 10BD     		pop	{r4, pc}
 1257              	.LVL87:
 1258              	.L89:
 1259              	.LCFI33:
 1260              		.cfi_restore_state
 720:Middlewares/Third_Party/FreeRTOS/Source/CMSIS_RTOS/cmsis_os.c ****       return xSemaphoreCreateBinaryStatic( semaphore_def->controlblock );
 1261              		.loc 1 720 7 is_stmt 1 view .LVU281
 720:Middlewares/Third_Party/FreeRTOS/Source/CMSIS_RTOS/cmsis_os.c ****       return xSemaphoreCreateBinaryStatic( semaphore_def->controlblock );
 1262              		.loc 1 720 14 is_stmt 0 view .LVU282
 1263 0014 0323     		movs	r3, #3
 1264 0016 0093     		str	r3, [sp]
 1265 0018 2346     		mov	r3, r4
 1266 001a 0022     		movs	r2, #0
 1267 001c 1146     		mov	r1, r2
 1268              	.LVL88:
 720:Middlewares/Third_Party/FreeRTOS/Source/CMSIS_RTOS/cmsis_os.c ****       return xSemaphoreCreateBinaryStatic( semaphore_def->controlblock );
 1269              		.loc 1 720 14 view .LVU283
 1270 001e 0120     		movs	r0, #1
 1271              	.LVL89:
 720:Middlewares/Third_Party/FreeRTOS/Source/CMSIS_RTOS/cmsis_os.c ****       return xSemaphoreCreateBinaryStatic( semaphore_def->controlblock );
 1272              		.loc 1 720 14 view .LVU284
 1273 0020 FFF7FEFF 		bl	xQueueGenericCreateStatic
 1274              	.LVL90:
 1275 0024 0446     		mov	r4, r0
 1276 0026 F2E7     		b	.L83
 1277              	.LVL91:
 1278              	.L84:
 731:Middlewares/Third_Party/FreeRTOS/Source/CMSIS_RTOS/cmsis_os.c ****       vSemaphoreCreateBinary(sema);
 1279              		.loc 1 731 5 is_stmt 1 view .LVU285
 731:Middlewares/Third_Party/FreeRTOS/Source/CMSIS_RTOS/cmsis_os.c ****       vSemaphoreCreateBinary(sema);
 1280              		.loc 1 731 8 is_stmt 0 view .LVU286
 1281 0028 0129     		cmp	r1, #1
 1282 002a F0D1     		bne	.L83
 732:Middlewares/Third_Party/FreeRTOS/Source/CMSIS_RTOS/cmsis_os.c ****       return sema;
 1283              		.loc 1 732 7 is_stmt 1 view .LVU287
 1284 002c 0322     		movs	r2, #3
 1285 002e 0021     		movs	r1, #0
 1286              	.LVL92:
 732:Middlewares/Third_Party/FreeRTOS/Source/CMSIS_RTOS/cmsis_os.c ****       return sema;
 1287              		.loc 1 732 7 is_stmt 0 view .LVU288
 1288 0030 0120     		movs	r0, #1
 1289              	.LVL93:
ARM GAS  C:\Users\LJH\AppData\Local\Temp\ccdyqIDU.s 			page 41


 732:Middlewares/Third_Party/FreeRTOS/Source/CMSIS_RTOS/cmsis_os.c ****       return sema;
 1290              		.loc 1 732 7 view .LVU289
 1291 0032 FFF7FEFF 		bl	xQueueGenericCreate
 1292              	.LVL94:
 732:Middlewares/Third_Party/FreeRTOS/Source/CMSIS_RTOS/cmsis_os.c ****       return sema;
 1293              		.loc 1 732 7 is_stmt 1 view .LVU290
 1294 0036 0446     		mov	r4, r0
 1295 0038 0028     		cmp	r0, #0
 1296 003a E8D0     		beq	.L83
 732:Middlewares/Third_Party/FreeRTOS/Source/CMSIS_RTOS/cmsis_os.c ****       return sema;
 1297              		.loc 1 732 7 discriminator 1 view .LVU291
 1298 003c 0023     		movs	r3, #0
 1299 003e 1A46     		mov	r2, r3
 1300 0040 1946     		mov	r1, r3
 1301 0042 FFF7FEFF 		bl	xQueueGenericSend
 1302              	.LVL95:
 732:Middlewares/Third_Party/FreeRTOS/Source/CMSIS_RTOS/cmsis_os.c ****       return sema;
 1303              		.loc 1 732 35 discriminator 1 view .LVU292
 733:Middlewares/Third_Party/FreeRTOS/Source/CMSIS_RTOS/cmsis_os.c ****     }
 1304              		.loc 1 733 7 discriminator 1 view .LVU293
 733:Middlewares/Third_Party/FreeRTOS/Source/CMSIS_RTOS/cmsis_os.c ****     }
 1305              		.loc 1 733 14 is_stmt 0 discriminator 1 view .LVU294
 1306 0046 E2E7     		b	.L83
 1307              		.cfi_endproc
 1308              	.LFE72:
 1310              		.section	.text.osSemaphoreWait,"ax",%progbits
 1311              		.align	1
 1312              		.global	osSemaphoreWait
 1313              		.syntax unified
 1314              		.thumb
 1315              		.thumb_func
 1317              	osSemaphoreWait:
 1318              	.LVL96:
 1319              	.LFB73:
 771:Middlewares/Third_Party/FreeRTOS/Source/CMSIS_RTOS/cmsis_os.c **** 
 772:Middlewares/Third_Party/FreeRTOS/Source/CMSIS_RTOS/cmsis_os.c **** /**
 773:Middlewares/Third_Party/FreeRTOS/Source/CMSIS_RTOS/cmsis_os.c **** * @brief Wait until a Semaphore token becomes available
 774:Middlewares/Third_Party/FreeRTOS/Source/CMSIS_RTOS/cmsis_os.c **** * @param  semaphore_id  semaphore object referenced with \ref osSemaphore.
 775:Middlewares/Third_Party/FreeRTOS/Source/CMSIS_RTOS/cmsis_os.c **** * @param  millisec      timeout value or 0 in case of no time-out.
 776:Middlewares/Third_Party/FreeRTOS/Source/CMSIS_RTOS/cmsis_os.c **** * @retval  number of available tokens, or -1 in case of incorrect parameters.
 777:Middlewares/Third_Party/FreeRTOS/Source/CMSIS_RTOS/cmsis_os.c **** * @note   MUST REMAIN UNCHANGED: \b osSemaphoreWait shall be consistent in every CMSIS-RTOS.
 778:Middlewares/Third_Party/FreeRTOS/Source/CMSIS_RTOS/cmsis_os.c **** */
 779:Middlewares/Third_Party/FreeRTOS/Source/CMSIS_RTOS/cmsis_os.c **** int32_t osSemaphoreWait (osSemaphoreId semaphore_id, uint32_t millisec)
 780:Middlewares/Third_Party/FreeRTOS/Source/CMSIS_RTOS/cmsis_os.c **** {
 1320              		.loc 1 780 1 is_stmt 1 view -0
 1321              		.cfi_startproc
 1322              		@ args = 0, pretend = 0, frame = 8
 1323              		@ frame_needed = 0, uses_anonymous_args = 0
 1324              		.loc 1 780 1 is_stmt 0 view .LVU296
 1325 0000 70B5     		push	{r4, r5, r6, lr}
 1326              	.LCFI34:
 1327              		.cfi_def_cfa_offset 16
 1328              		.cfi_offset 4, -16
 1329              		.cfi_offset 5, -12
 1330              		.cfi_offset 6, -8
 1331              		.cfi_offset 14, -4
 1332 0002 82B0     		sub	sp, sp, #8
ARM GAS  C:\Users\LJH\AppData\Local\Temp\ccdyqIDU.s 			page 42


 1333              	.LCFI35:
 1334              		.cfi_def_cfa_offset 24
 781:Middlewares/Third_Party/FreeRTOS/Source/CMSIS_RTOS/cmsis_os.c ****   TickType_t ticks;
 1335              		.loc 1 781 3 is_stmt 1 view .LVU297
 782:Middlewares/Third_Party/FreeRTOS/Source/CMSIS_RTOS/cmsis_os.c ****   portBASE_TYPE taskWoken = pdFALSE;  
 1336              		.loc 1 782 3 view .LVU298
 1337              		.loc 1 782 17 is_stmt 0 view .LVU299
 1338 0004 0023     		movs	r3, #0
 1339 0006 0193     		str	r3, [sp, #4]
 783:Middlewares/Third_Party/FreeRTOS/Source/CMSIS_RTOS/cmsis_os.c ****   
 784:Middlewares/Third_Party/FreeRTOS/Source/CMSIS_RTOS/cmsis_os.c ****   
 785:Middlewares/Third_Party/FreeRTOS/Source/CMSIS_RTOS/cmsis_os.c ****   if (semaphore_id == NULL) {
 1340              		.loc 1 785 3 is_stmt 1 view .LVU300
 1341              		.loc 1 785 6 is_stmt 0 view .LVU301
 1342 0008 18B3     		cbz	r0, .L93
 1343 000a 0C46     		mov	r4, r1
 1344 000c 0646     		mov	r6, r0
 786:Middlewares/Third_Party/FreeRTOS/Source/CMSIS_RTOS/cmsis_os.c ****     return osErrorParameter;
 787:Middlewares/Third_Party/FreeRTOS/Source/CMSIS_RTOS/cmsis_os.c ****   }
 788:Middlewares/Third_Party/FreeRTOS/Source/CMSIS_RTOS/cmsis_os.c ****   
 789:Middlewares/Third_Party/FreeRTOS/Source/CMSIS_RTOS/cmsis_os.c ****   ticks = 0;
 1345              		.loc 1 789 3 is_stmt 1 view .LVU302
 1346              	.LVL97:
 790:Middlewares/Third_Party/FreeRTOS/Source/CMSIS_RTOS/cmsis_os.c ****   if (millisec == osWaitForever) {
 1347              		.loc 1 790 3 view .LVU303
 791:Middlewares/Third_Party/FreeRTOS/Source/CMSIS_RTOS/cmsis_os.c ****     ticks = portMAX_DELAY;
 792:Middlewares/Third_Party/FreeRTOS/Source/CMSIS_RTOS/cmsis_os.c ****   }
 793:Middlewares/Third_Party/FreeRTOS/Source/CMSIS_RTOS/cmsis_os.c ****   else if (millisec != 0) {
 794:Middlewares/Third_Party/FreeRTOS/Source/CMSIS_RTOS/cmsis_os.c ****     ticks = millisec / portTICK_PERIOD_MS;
 795:Middlewares/Third_Party/FreeRTOS/Source/CMSIS_RTOS/cmsis_os.c ****     if (ticks == 0) {
 796:Middlewares/Third_Party/FreeRTOS/Source/CMSIS_RTOS/cmsis_os.c ****       ticks = 1;
 797:Middlewares/Third_Party/FreeRTOS/Source/CMSIS_RTOS/cmsis_os.c ****     }
 798:Middlewares/Third_Party/FreeRTOS/Source/CMSIS_RTOS/cmsis_os.c ****   }
 799:Middlewares/Third_Party/FreeRTOS/Source/CMSIS_RTOS/cmsis_os.c ****   
 800:Middlewares/Third_Party/FreeRTOS/Source/CMSIS_RTOS/cmsis_os.c ****   if (inHandlerMode()) {
 1348              		.loc 1 800 3 view .LVU304
 1349              		.loc 1 800 7 is_stmt 0 view .LVU305
 1350 000e FFF7FEFF 		bl	inHandlerMode
 1351              	.LVL98:
 1352              		.loc 1 800 6 view .LVU306
 1353 0012 0546     		mov	r5, r0
 1354 0014 A0B1     		cbz	r0, .L92
 801:Middlewares/Third_Party/FreeRTOS/Source/CMSIS_RTOS/cmsis_os.c ****     if (xSemaphoreTakeFromISR(semaphore_id, &taskWoken) != pdTRUE) {
 1355              		.loc 1 801 5 is_stmt 1 view .LVU307
 1356              		.loc 1 801 9 is_stmt 0 view .LVU308
 1357 0016 01AA     		add	r2, sp, #4
 1358 0018 0021     		movs	r1, #0
 1359 001a 3046     		mov	r0, r6
 1360 001c FFF7FEFF 		bl	xQueueReceiveFromISR
 1361              	.LVL99:
 1362              		.loc 1 801 8 view .LVU309
 1363 0020 0128     		cmp	r0, #1
 1364 0022 18D1     		bne	.L94
 802:Middlewares/Third_Party/FreeRTOS/Source/CMSIS_RTOS/cmsis_os.c ****       return osErrorOS;
 803:Middlewares/Third_Party/FreeRTOS/Source/CMSIS_RTOS/cmsis_os.c ****     }
 804:Middlewares/Third_Party/FreeRTOS/Source/CMSIS_RTOS/cmsis_os.c **** 	portEND_SWITCHING_ISR(taskWoken);
 1365              		.loc 1 804 2 is_stmt 1 view .LVU310
ARM GAS  C:\Users\LJH\AppData\Local\Temp\ccdyqIDU.s 			page 43


 1366 0024 019D     		ldr	r5, [sp, #4]
 1367 0026 8DB1     		cbz	r5, .L90
 1368              		.loc 1 804 2 discriminator 1 view .LVU311
 1369 0028 4FF0E023 		mov	r3, #-536813568
 1370 002c 4FF08052 		mov	r2, #268435456
 1371 0030 C3F8042D 		str	r2, [r3, #3332]
 1372              		.loc 1 804 2 discriminator 1 view .LVU312
 1373              		.syntax unified
 1374              	@ 804 "Middlewares/Third_Party/FreeRTOS/Source/CMSIS_RTOS/cmsis_os.c" 1
 1375 0034 BFF34F8F 		dsb
 1376              	@ 0 "" 2
 1377              		.loc 1 804 2 discriminator 1 view .LVU313
 1378              	@ 804 "Middlewares/Third_Party/FreeRTOS/Source/CMSIS_RTOS/cmsis_os.c" 1
 1379 0038 BFF36F8F 		isb
 1380              	@ 0 "" 2
 805:Middlewares/Third_Party/FreeRTOS/Source/CMSIS_RTOS/cmsis_os.c ****   }  
 806:Middlewares/Third_Party/FreeRTOS/Source/CMSIS_RTOS/cmsis_os.c ****   else if (xSemaphoreTake(semaphore_id, ticks) != pdTRUE) {
 807:Middlewares/Third_Party/FreeRTOS/Source/CMSIS_RTOS/cmsis_os.c ****     return osErrorOS;
 808:Middlewares/Third_Party/FreeRTOS/Source/CMSIS_RTOS/cmsis_os.c ****   }
 809:Middlewares/Third_Party/FreeRTOS/Source/CMSIS_RTOS/cmsis_os.c ****   
 810:Middlewares/Third_Party/FreeRTOS/Source/CMSIS_RTOS/cmsis_os.c ****   return osOK;
 1381              		.loc 1 810 10 is_stmt 0 discriminator 1 view .LVU314
 1382              		.thumb
 1383              		.syntax unified
 1384 003c 0025     		movs	r5, #0
 1385 003e 05E0     		b	.L90
 1386              	.L92:
 806:Middlewares/Third_Party/FreeRTOS/Source/CMSIS_RTOS/cmsis_os.c ****     return osErrorOS;
 1387              		.loc 1 806 8 is_stmt 1 view .LVU315
 806:Middlewares/Third_Party/FreeRTOS/Source/CMSIS_RTOS/cmsis_os.c ****     return osErrorOS;
 1388              		.loc 1 806 12 is_stmt 0 view .LVU316
 1389 0040 2146     		mov	r1, r4
 1390 0042 3046     		mov	r0, r6
 1391 0044 FFF7FEFF 		bl	xQueueSemaphoreTake
 1392              	.LVL100:
 806:Middlewares/Third_Party/FreeRTOS/Source/CMSIS_RTOS/cmsis_os.c ****     return osErrorOS;
 1393              		.loc 1 806 11 view .LVU317
 1394 0048 0128     		cmp	r0, #1
 1395 004a 06D1     		bne	.L97
 1396              	.LVL101:
 1397              	.L90:
 811:Middlewares/Third_Party/FreeRTOS/Source/CMSIS_RTOS/cmsis_os.c **** }
 1398              		.loc 1 811 1 view .LVU318
 1399 004c 2846     		mov	r0, r5
 1400 004e 02B0     		add	sp, sp, #8
 1401              	.LCFI36:
 1402              		.cfi_remember_state
 1403              		.cfi_def_cfa_offset 16
 1404              		@ sp needed
 1405 0050 70BD     		pop	{r4, r5, r6, pc}
 1406              	.LVL102:
 1407              	.L93:
 1408              	.LCFI37:
 1409              		.cfi_restore_state
 786:Middlewares/Third_Party/FreeRTOS/Source/CMSIS_RTOS/cmsis_os.c ****   }
 1410              		.loc 1 786 12 view .LVU319
 1411 0052 8025     		movs	r5, #128
ARM GAS  C:\Users\LJH\AppData\Local\Temp\ccdyqIDU.s 			page 44


 1412 0054 FAE7     		b	.L90
 1413              	.LVL103:
 1414              	.L94:
 802:Middlewares/Third_Party/FreeRTOS/Source/CMSIS_RTOS/cmsis_os.c ****     }
 1415              		.loc 1 802 14 view .LVU320
 1416 0056 FF25     		movs	r5, #255
 1417 0058 F8E7     		b	.L90
 1418              	.L97:
 807:Middlewares/Third_Party/FreeRTOS/Source/CMSIS_RTOS/cmsis_os.c ****   }
 1419              		.loc 1 807 12 view .LVU321
 1420 005a FF25     		movs	r5, #255
 1421 005c F6E7     		b	.L90
 1422              		.cfi_endproc
 1423              	.LFE73:
 1425              		.section	.text.osSemaphoreRelease,"ax",%progbits
 1426              		.align	1
 1427              		.global	osSemaphoreRelease
 1428              		.syntax unified
 1429              		.thumb
 1430              		.thumb_func
 1432              	osSemaphoreRelease:
 1433              	.LVL104:
 1434              	.LFB74:
 812:Middlewares/Third_Party/FreeRTOS/Source/CMSIS_RTOS/cmsis_os.c **** 
 813:Middlewares/Third_Party/FreeRTOS/Source/CMSIS_RTOS/cmsis_os.c **** /**
 814:Middlewares/Third_Party/FreeRTOS/Source/CMSIS_RTOS/cmsis_os.c **** * @brief Release a Semaphore token
 815:Middlewares/Third_Party/FreeRTOS/Source/CMSIS_RTOS/cmsis_os.c **** * @param  semaphore_id  semaphore object referenced with \ref osSemaphore.
 816:Middlewares/Third_Party/FreeRTOS/Source/CMSIS_RTOS/cmsis_os.c **** * @retval  status code that indicates the execution status of the function.
 817:Middlewares/Third_Party/FreeRTOS/Source/CMSIS_RTOS/cmsis_os.c **** * @note   MUST REMAIN UNCHANGED: \b osSemaphoreRelease shall be consistent in every CMSIS-RTOS.
 818:Middlewares/Third_Party/FreeRTOS/Source/CMSIS_RTOS/cmsis_os.c **** */
 819:Middlewares/Third_Party/FreeRTOS/Source/CMSIS_RTOS/cmsis_os.c **** osStatus osSemaphoreRelease (osSemaphoreId semaphore_id)
 820:Middlewares/Third_Party/FreeRTOS/Source/CMSIS_RTOS/cmsis_os.c **** {
 1435              		.loc 1 820 1 is_stmt 1 view -0
 1436              		.cfi_startproc
 1437              		@ args = 0, pretend = 0, frame = 8
 1438              		@ frame_needed = 0, uses_anonymous_args = 0
 1439              		.loc 1 820 1 is_stmt 0 view .LVU323
 1440 0000 10B5     		push	{r4, lr}
 1441              	.LCFI38:
 1442              		.cfi_def_cfa_offset 8
 1443              		.cfi_offset 4, -8
 1444              		.cfi_offset 14, -4
 1445 0002 82B0     		sub	sp, sp, #8
 1446              	.LCFI39:
 1447              		.cfi_def_cfa_offset 16
 1448 0004 0446     		mov	r4, r0
 821:Middlewares/Third_Party/FreeRTOS/Source/CMSIS_RTOS/cmsis_os.c ****   osStatus result = osOK;
 1449              		.loc 1 821 3 is_stmt 1 view .LVU324
 1450              	.LVL105:
 822:Middlewares/Third_Party/FreeRTOS/Source/CMSIS_RTOS/cmsis_os.c ****   portBASE_TYPE taskWoken = pdFALSE;
 1451              		.loc 1 822 3 view .LVU325
 1452              		.loc 1 822 17 is_stmt 0 view .LVU326
 1453 0006 0023     		movs	r3, #0
 1454 0008 0193     		str	r3, [sp, #4]
 823:Middlewares/Third_Party/FreeRTOS/Source/CMSIS_RTOS/cmsis_os.c ****   
 824:Middlewares/Third_Party/FreeRTOS/Source/CMSIS_RTOS/cmsis_os.c ****   
 825:Middlewares/Third_Party/FreeRTOS/Source/CMSIS_RTOS/cmsis_os.c ****   if (inHandlerMode()) {
ARM GAS  C:\Users\LJH\AppData\Local\Temp\ccdyqIDU.s 			page 45


 1455              		.loc 1 825 3 is_stmt 1 view .LVU327
 1456              		.loc 1 825 7 is_stmt 0 view .LVU328
 1457 000a FFF7FEFF 		bl	inHandlerMode
 1458              	.LVL106:
 1459              		.loc 1 825 6 view .LVU329
 1460 000e 98B1     		cbz	r0, .L99
 826:Middlewares/Third_Party/FreeRTOS/Source/CMSIS_RTOS/cmsis_os.c ****     if (xSemaphoreGiveFromISR(semaphore_id, &taskWoken) != pdTRUE) {
 1461              		.loc 1 826 5 is_stmt 1 view .LVU330
 1462              		.loc 1 826 9 is_stmt 0 view .LVU331
 1463 0010 01A9     		add	r1, sp, #4
 1464 0012 2046     		mov	r0, r4
 1465 0014 FFF7FEFF 		bl	xQueueGiveFromISR
 1466              	.LVL107:
 1467              		.loc 1 826 8 view .LVU332
 1468 0018 0128     		cmp	r0, #1
 1469 001a 1AD1     		bne	.L101
 827:Middlewares/Third_Party/FreeRTOS/Source/CMSIS_RTOS/cmsis_os.c ****       return osErrorOS;
 828:Middlewares/Third_Party/FreeRTOS/Source/CMSIS_RTOS/cmsis_os.c ****     }
 829:Middlewares/Third_Party/FreeRTOS/Source/CMSIS_RTOS/cmsis_os.c ****     portEND_SWITCHING_ISR(taskWoken);
 1470              		.loc 1 829 5 is_stmt 1 view .LVU333
 1471 001c 019B     		ldr	r3, [sp, #4]
 1472 001e D3B1     		cbz	r3, .L102
 1473              		.loc 1 829 5 discriminator 1 view .LVU334
 1474 0020 4FF0E023 		mov	r3, #-536813568
 1475 0024 4FF08052 		mov	r2, #268435456
 1476 0028 C3F8042D 		str	r2, [r3, #3332]
 1477              		.loc 1 829 5 discriminator 1 view .LVU335
 1478              		.syntax unified
 1479              	@ 829 "Middlewares/Third_Party/FreeRTOS/Source/CMSIS_RTOS/cmsis_os.c" 1
 1480 002c BFF34F8F 		dsb
 1481              	@ 0 "" 2
 1482              		.loc 1 829 5 discriminator 1 view .LVU336
 1483              	@ 829 "Middlewares/Third_Party/FreeRTOS/Source/CMSIS_RTOS/cmsis_os.c" 1
 1484 0030 BFF36F8F 		isb
 1485              	@ 0 "" 2
 821:Middlewares/Third_Party/FreeRTOS/Source/CMSIS_RTOS/cmsis_os.c ****   portBASE_TYPE taskWoken = pdFALSE;
 1486              		.loc 1 821 12 is_stmt 0 discriminator 1 view .LVU337
 1487              		.thumb
 1488              		.syntax unified
 1489 0034 0020     		movs	r0, #0
 1490 0036 08E0     		b	.L98
 1491              	.L99:
 830:Middlewares/Third_Party/FreeRTOS/Source/CMSIS_RTOS/cmsis_os.c ****   }
 831:Middlewares/Third_Party/FreeRTOS/Source/CMSIS_RTOS/cmsis_os.c ****   else {
 832:Middlewares/Third_Party/FreeRTOS/Source/CMSIS_RTOS/cmsis_os.c ****     if (xSemaphoreGive(semaphore_id) != pdTRUE) {
 1492              		.loc 1 832 5 is_stmt 1 view .LVU338
 1493              		.loc 1 832 9 is_stmt 0 view .LVU339
 1494 0038 0023     		movs	r3, #0
 1495 003a 1A46     		mov	r2, r3
 1496 003c 1946     		mov	r1, r3
 1497 003e 2046     		mov	r0, r4
 1498 0040 FFF7FEFF 		bl	xQueueGenericSend
 1499              	.LVL108:
 1500              		.loc 1 832 8 view .LVU340
 1501 0044 0128     		cmp	r0, #1
 1502 0046 02D0     		beq	.L105
 833:Middlewares/Third_Party/FreeRTOS/Source/CMSIS_RTOS/cmsis_os.c ****       result = osErrorOS;
ARM GAS  C:\Users\LJH\AppData\Local\Temp\ccdyqIDU.s 			page 46


 1503              		.loc 1 833 14 view .LVU341
 1504 0048 FF20     		movs	r0, #255
 1505              	.LVL109:
 1506              	.L98:
 834:Middlewares/Third_Party/FreeRTOS/Source/CMSIS_RTOS/cmsis_os.c ****     }
 835:Middlewares/Third_Party/FreeRTOS/Source/CMSIS_RTOS/cmsis_os.c ****   }
 836:Middlewares/Third_Party/FreeRTOS/Source/CMSIS_RTOS/cmsis_os.c ****   
 837:Middlewares/Third_Party/FreeRTOS/Source/CMSIS_RTOS/cmsis_os.c ****   return result;
 838:Middlewares/Third_Party/FreeRTOS/Source/CMSIS_RTOS/cmsis_os.c **** }
 1507              		.loc 1 838 1 view .LVU342
 1508 004a 02B0     		add	sp, sp, #8
 1509              	.LCFI40:
 1510              		.cfi_remember_state
 1511              		.cfi_def_cfa_offset 8
 1512              		@ sp needed
 1513 004c 10BD     		pop	{r4, pc}
 1514              	.LVL110:
 1515              	.L105:
 1516              	.LCFI41:
 1517              		.cfi_restore_state
 821:Middlewares/Third_Party/FreeRTOS/Source/CMSIS_RTOS/cmsis_os.c ****   portBASE_TYPE taskWoken = pdFALSE;
 1518              		.loc 1 821 12 view .LVU343
 1519 004e 0020     		movs	r0, #0
 1520 0050 FBE7     		b	.L98
 1521              	.L101:
 827:Middlewares/Third_Party/FreeRTOS/Source/CMSIS_RTOS/cmsis_os.c ****     }
 1522              		.loc 1 827 14 view .LVU344
 1523 0052 FF20     		movs	r0, #255
 1524 0054 F9E7     		b	.L98
 1525              	.L102:
 821:Middlewares/Third_Party/FreeRTOS/Source/CMSIS_RTOS/cmsis_os.c ****   portBASE_TYPE taskWoken = pdFALSE;
 1526              		.loc 1 821 12 view .LVU345
 1527 0056 0020     		movs	r0, #0
 1528 0058 F7E7     		b	.L98
 1529              		.cfi_endproc
 1530              	.LFE74:
 1532              		.section	.text.osSemaphoreDelete,"ax",%progbits
 1533              		.align	1
 1534              		.global	osSemaphoreDelete
 1535              		.syntax unified
 1536              		.thumb
 1537              		.thumb_func
 1539              	osSemaphoreDelete:
 1540              	.LVL111:
 1541              	.LFB75:
 839:Middlewares/Third_Party/FreeRTOS/Source/CMSIS_RTOS/cmsis_os.c **** 
 840:Middlewares/Third_Party/FreeRTOS/Source/CMSIS_RTOS/cmsis_os.c **** /**
 841:Middlewares/Third_Party/FreeRTOS/Source/CMSIS_RTOS/cmsis_os.c **** * @brief Delete a Semaphore
 842:Middlewares/Third_Party/FreeRTOS/Source/CMSIS_RTOS/cmsis_os.c **** * @param  semaphore_id  semaphore object referenced with \ref osSemaphore.
 843:Middlewares/Third_Party/FreeRTOS/Source/CMSIS_RTOS/cmsis_os.c **** * @retval  status code that indicates the execution status of the function.
 844:Middlewares/Third_Party/FreeRTOS/Source/CMSIS_RTOS/cmsis_os.c **** * @note   MUST REMAIN UNCHANGED: \b osSemaphoreDelete shall be consistent in every CMSIS-RTOS.
 845:Middlewares/Third_Party/FreeRTOS/Source/CMSIS_RTOS/cmsis_os.c **** */
 846:Middlewares/Third_Party/FreeRTOS/Source/CMSIS_RTOS/cmsis_os.c **** osStatus osSemaphoreDelete (osSemaphoreId semaphore_id)
 847:Middlewares/Third_Party/FreeRTOS/Source/CMSIS_RTOS/cmsis_os.c **** {
 1542              		.loc 1 847 1 is_stmt 1 view -0
 1543              		.cfi_startproc
 1544              		@ args = 0, pretend = 0, frame = 0
ARM GAS  C:\Users\LJH\AppData\Local\Temp\ccdyqIDU.s 			page 47


 1545              		@ frame_needed = 0, uses_anonymous_args = 0
 1546              		.loc 1 847 1 is_stmt 0 view .LVU347
 1547 0000 10B5     		push	{r4, lr}
 1548              	.LCFI42:
 1549              		.cfi_def_cfa_offset 8
 1550              		.cfi_offset 4, -8
 1551              		.cfi_offset 14, -4
 1552 0002 0446     		mov	r4, r0
 848:Middlewares/Third_Party/FreeRTOS/Source/CMSIS_RTOS/cmsis_os.c ****   if (inHandlerMode()) {
 1553              		.loc 1 848 3 is_stmt 1 view .LVU348
 1554              		.loc 1 848 7 is_stmt 0 view .LVU349
 1555 0004 FFF7FEFF 		bl	inHandlerMode
 1556              	.LVL112:
 1557              		.loc 1 848 6 view .LVU350
 1558 0008 20B9     		cbnz	r0, .L108
 849:Middlewares/Third_Party/FreeRTOS/Source/CMSIS_RTOS/cmsis_os.c ****     return osErrorISR;
 850:Middlewares/Third_Party/FreeRTOS/Source/CMSIS_RTOS/cmsis_os.c ****   }
 851:Middlewares/Third_Party/FreeRTOS/Source/CMSIS_RTOS/cmsis_os.c **** 
 852:Middlewares/Third_Party/FreeRTOS/Source/CMSIS_RTOS/cmsis_os.c ****   vSemaphoreDelete(semaphore_id);
 1559              		.loc 1 852 3 is_stmt 1 view .LVU351
 1560 000a 2046     		mov	r0, r4
 1561 000c FFF7FEFF 		bl	vQueueDelete
 1562              	.LVL113:
 853:Middlewares/Third_Party/FreeRTOS/Source/CMSIS_RTOS/cmsis_os.c **** 
 854:Middlewares/Third_Party/FreeRTOS/Source/CMSIS_RTOS/cmsis_os.c ****   return osOK; 
 1563              		.loc 1 854 3 view .LVU352
 1564              		.loc 1 854 10 is_stmt 0 view .LVU353
 1565 0010 0020     		movs	r0, #0
 1566              	.L106:
 855:Middlewares/Third_Party/FreeRTOS/Source/CMSIS_RTOS/cmsis_os.c **** }
 1567              		.loc 1 855 1 view .LVU354
 1568 0012 10BD     		pop	{r4, pc}
 1569              	.LVL114:
 1570              	.L108:
 849:Middlewares/Third_Party/FreeRTOS/Source/CMSIS_RTOS/cmsis_os.c ****     return osErrorISR;
 1571              		.loc 1 849 12 view .LVU355
 1572 0014 8220     		movs	r0, #130
 1573 0016 FCE7     		b	.L106
 1574              		.cfi_endproc
 1575              	.LFE75:
 1577              		.section	.text.osPoolCreate,"ax",%progbits
 1578              		.align	1
 1579              		.global	osPoolCreate
 1580              		.syntax unified
 1581              		.thumb
 1582              		.thumb_func
 1584              	osPoolCreate:
 1585              	.LVL115:
 1586              	.LFB76:
 856:Middlewares/Third_Party/FreeRTOS/Source/CMSIS_RTOS/cmsis_os.c **** 
 857:Middlewares/Third_Party/FreeRTOS/Source/CMSIS_RTOS/cmsis_os.c **** #endif    /* Use Semaphores */
 858:Middlewares/Third_Party/FreeRTOS/Source/CMSIS_RTOS/cmsis_os.c **** 
 859:Middlewares/Third_Party/FreeRTOS/Source/CMSIS_RTOS/cmsis_os.c **** /*******************   Memory Pool Management Functions  ***********************/
 860:Middlewares/Third_Party/FreeRTOS/Source/CMSIS_RTOS/cmsis_os.c **** 
 861:Middlewares/Third_Party/FreeRTOS/Source/CMSIS_RTOS/cmsis_os.c **** #if (defined (osFeature_Pool)  &&  (osFeature_Pool != 0)) 
 862:Middlewares/Third_Party/FreeRTOS/Source/CMSIS_RTOS/cmsis_os.c **** 
 863:Middlewares/Third_Party/FreeRTOS/Source/CMSIS_RTOS/cmsis_os.c **** //TODO
ARM GAS  C:\Users\LJH\AppData\Local\Temp\ccdyqIDU.s 			page 48


 864:Middlewares/Third_Party/FreeRTOS/Source/CMSIS_RTOS/cmsis_os.c **** //This is a primitive and inefficient wrapper around the existing FreeRTOS memory management.
 865:Middlewares/Third_Party/FreeRTOS/Source/CMSIS_RTOS/cmsis_os.c **** //A better implementation will have to modify heap_x.c!
 866:Middlewares/Third_Party/FreeRTOS/Source/CMSIS_RTOS/cmsis_os.c **** 
 867:Middlewares/Third_Party/FreeRTOS/Source/CMSIS_RTOS/cmsis_os.c **** 
 868:Middlewares/Third_Party/FreeRTOS/Source/CMSIS_RTOS/cmsis_os.c **** typedef struct os_pool_cb {
 869:Middlewares/Third_Party/FreeRTOS/Source/CMSIS_RTOS/cmsis_os.c ****   void *pool;
 870:Middlewares/Third_Party/FreeRTOS/Source/CMSIS_RTOS/cmsis_os.c ****   uint8_t *markers;
 871:Middlewares/Third_Party/FreeRTOS/Source/CMSIS_RTOS/cmsis_os.c ****   uint32_t pool_sz;
 872:Middlewares/Third_Party/FreeRTOS/Source/CMSIS_RTOS/cmsis_os.c ****   uint32_t item_sz;
 873:Middlewares/Third_Party/FreeRTOS/Source/CMSIS_RTOS/cmsis_os.c ****   uint32_t currentIndex;
 874:Middlewares/Third_Party/FreeRTOS/Source/CMSIS_RTOS/cmsis_os.c **** } os_pool_cb_t;
 875:Middlewares/Third_Party/FreeRTOS/Source/CMSIS_RTOS/cmsis_os.c **** 
 876:Middlewares/Third_Party/FreeRTOS/Source/CMSIS_RTOS/cmsis_os.c **** 
 877:Middlewares/Third_Party/FreeRTOS/Source/CMSIS_RTOS/cmsis_os.c **** /**
 878:Middlewares/Third_Party/FreeRTOS/Source/CMSIS_RTOS/cmsis_os.c **** * @brief Create and Initialize a memory pool
 879:Middlewares/Third_Party/FreeRTOS/Source/CMSIS_RTOS/cmsis_os.c **** * @param  pool_def      memory pool definition referenced with \ref osPool.
 880:Middlewares/Third_Party/FreeRTOS/Source/CMSIS_RTOS/cmsis_os.c **** * @retval  memory pool ID for reference by other functions or NULL in case of error.
 881:Middlewares/Third_Party/FreeRTOS/Source/CMSIS_RTOS/cmsis_os.c **** * @note   MUST REMAIN UNCHANGED: \b osPoolCreate shall be consistent in every CMSIS-RTOS.
 882:Middlewares/Third_Party/FreeRTOS/Source/CMSIS_RTOS/cmsis_os.c **** */
 883:Middlewares/Third_Party/FreeRTOS/Source/CMSIS_RTOS/cmsis_os.c **** osPoolId osPoolCreate (const osPoolDef_t *pool_def)
 884:Middlewares/Third_Party/FreeRTOS/Source/CMSIS_RTOS/cmsis_os.c **** {
 1587              		.loc 1 884 1 is_stmt 1 view -0
 1588              		.cfi_startproc
 1589              		@ args = 0, pretend = 0, frame = 0
 1590              		@ frame_needed = 0, uses_anonymous_args = 0
 1591              		.loc 1 884 1 is_stmt 0 view .LVU357
 1592 0000 F8B5     		push	{r3, r4, r5, r6, r7, lr}
 1593              	.LCFI43:
 1594              		.cfi_def_cfa_offset 24
 1595              		.cfi_offset 3, -24
 1596              		.cfi_offset 4, -20
 1597              		.cfi_offset 5, -16
 1598              		.cfi_offset 6, -12
 1599              		.cfi_offset 7, -8
 1600              		.cfi_offset 14, -4
 1601 0002 0446     		mov	r4, r0
 885:Middlewares/Third_Party/FreeRTOS/Source/CMSIS_RTOS/cmsis_os.c **** #if (configSUPPORT_DYNAMIC_ALLOCATION == 1)
 886:Middlewares/Third_Party/FreeRTOS/Source/CMSIS_RTOS/cmsis_os.c ****   osPoolId thePool;
 1602              		.loc 1 886 3 is_stmt 1 view .LVU358
 887:Middlewares/Third_Party/FreeRTOS/Source/CMSIS_RTOS/cmsis_os.c ****   int itemSize = 4 * ((pool_def->item_sz + 3) / 4);
 1603              		.loc 1 887 3 view .LVU359
 1604              		.loc 1 887 32 is_stmt 0 view .LVU360
 1605 0004 4368     		ldr	r3, [r0, #4]
 1606              		.loc 1 887 42 view .LVU361
 1607 0006 0333     		adds	r3, r3, #3
 1608              		.loc 1 887 7 view .LVU362
 1609 0008 23F00306 		bic	r6, r3, #3
 1610              	.LVL116:
 888:Middlewares/Third_Party/FreeRTOS/Source/CMSIS_RTOS/cmsis_os.c ****   uint32_t i;
 1611              		.loc 1 888 3 is_stmt 1 view .LVU363
 889:Middlewares/Third_Party/FreeRTOS/Source/CMSIS_RTOS/cmsis_os.c ****   
 890:Middlewares/Third_Party/FreeRTOS/Source/CMSIS_RTOS/cmsis_os.c ****   /* First have to allocate memory for the pool control block. */
 891:Middlewares/Third_Party/FreeRTOS/Source/CMSIS_RTOS/cmsis_os.c ****  thePool = pvPortMalloc(sizeof(os_pool_cb_t));
 1612              		.loc 1 891 2 view .LVU364
 1613              		.loc 1 891 12 is_stmt 0 view .LVU365
 1614 000c 1420     		movs	r0, #20
 1615              	.LVL117:
ARM GAS  C:\Users\LJH\AppData\Local\Temp\ccdyqIDU.s 			page 49


 1616              		.loc 1 891 12 view .LVU366
 1617 000e FFF7FEFF 		bl	pvPortMalloc
 1618              	.LVL118:
 892:Middlewares/Third_Party/FreeRTOS/Source/CMSIS_RTOS/cmsis_os.c **** 
 893:Middlewares/Third_Party/FreeRTOS/Source/CMSIS_RTOS/cmsis_os.c ****   
 894:Middlewares/Third_Party/FreeRTOS/Source/CMSIS_RTOS/cmsis_os.c ****   if (thePool) {
 1619              		.loc 1 894 3 is_stmt 1 view .LVU367
 1620              		.loc 1 894 6 is_stmt 0 view .LVU368
 1621 0012 0546     		mov	r5, r0
 1622 0014 D8B1     		cbz	r0, .L110
 895:Middlewares/Third_Party/FreeRTOS/Source/CMSIS_RTOS/cmsis_os.c ****     thePool->pool_sz = pool_def->pool_sz;
 1623              		.loc 1 895 5 is_stmt 1 view .LVU369
 1624              		.loc 1 895 32 is_stmt 0 view .LVU370
 1625 0016 2368     		ldr	r3, [r4]
 1626              		.loc 1 895 22 view .LVU371
 1627 0018 8360     		str	r3, [r0, #8]
 896:Middlewares/Third_Party/FreeRTOS/Source/CMSIS_RTOS/cmsis_os.c ****     thePool->item_sz = itemSize;
 1628              		.loc 1 896 5 is_stmt 1 view .LVU372
 1629              		.loc 1 896 22 is_stmt 0 view .LVU373
 1630 001a C660     		str	r6, [r0, #12]
 897:Middlewares/Third_Party/FreeRTOS/Source/CMSIS_RTOS/cmsis_os.c ****     thePool->currentIndex = 0;
 1631              		.loc 1 897 5 is_stmt 1 view .LVU374
 1632              		.loc 1 897 27 is_stmt 0 view .LVU375
 1633 001c 0023     		movs	r3, #0
 1634 001e 0361     		str	r3, [r0, #16]
 898:Middlewares/Third_Party/FreeRTOS/Source/CMSIS_RTOS/cmsis_os.c ****     
 899:Middlewares/Third_Party/FreeRTOS/Source/CMSIS_RTOS/cmsis_os.c ****     /* Memory for markers */
 900:Middlewares/Third_Party/FreeRTOS/Source/CMSIS_RTOS/cmsis_os.c ****     thePool->markers = pvPortMalloc(pool_def->pool_sz);
 1635              		.loc 1 900 5 is_stmt 1 view .LVU376
 1636              		.loc 1 900 24 is_stmt 0 view .LVU377
 1637 0020 2068     		ldr	r0, [r4]
 1638              	.LVL119:
 1639              		.loc 1 900 24 view .LVU378
 1640 0022 FFF7FEFF 		bl	pvPortMalloc
 1641              	.LVL120:
 1642 0026 0746     		mov	r7, r0
 1643              		.loc 1 900 22 view .LVU379
 1644 0028 6860     		str	r0, [r5, #4]
 901:Middlewares/Third_Party/FreeRTOS/Source/CMSIS_RTOS/cmsis_os.c ****    
 902:Middlewares/Third_Party/FreeRTOS/Source/CMSIS_RTOS/cmsis_os.c ****     if (thePool->markers) {
 1645              		.loc 1 902 5 is_stmt 1 view .LVU380
 1646              		.loc 1 902 8 is_stmt 0 view .LVU381
 1647 002a D0B1     		cbz	r0, .L112
 903:Middlewares/Third_Party/FreeRTOS/Source/CMSIS_RTOS/cmsis_os.c ****       /* Now allocate the pool itself. */
 904:Middlewares/Third_Party/FreeRTOS/Source/CMSIS_RTOS/cmsis_os.c ****      thePool->pool = pvPortMalloc(pool_def->pool_sz * itemSize);
 1648              		.loc 1 904 6 is_stmt 1 view .LVU382
 1649              		.loc 1 904 43 is_stmt 0 view .LVU383
 1650 002c 2068     		ldr	r0, [r4]
 1651              		.loc 1 904 22 view .LVU384
 1652 002e 06FB00F0 		mul	r0, r6, r0
 1653 0032 FFF7FEFF 		bl	pvPortMalloc
 1654              	.LVL121:
 1655 0036 0646     		mov	r6, r0
 1656              	.LVL122:
 1657              		.loc 1 904 20 view .LVU385
 1658 0038 2860     		str	r0, [r5]
 905:Middlewares/Third_Party/FreeRTOS/Source/CMSIS_RTOS/cmsis_os.c ****       
ARM GAS  C:\Users\LJH\AppData\Local\Temp\ccdyqIDU.s 			page 50


 906:Middlewares/Third_Party/FreeRTOS/Source/CMSIS_RTOS/cmsis_os.c ****       if (thePool->pool) {
 1659              		.loc 1 906 7 is_stmt 1 view .LVU386
 1660              		.loc 1 906 10 is_stmt 0 view .LVU387
 1661 003a 50B1     		cbz	r0, .L119
 907:Middlewares/Third_Party/FreeRTOS/Source/CMSIS_RTOS/cmsis_os.c ****         for (i = 0; i < pool_def->pool_sz; i++) {
 1662              		.loc 1 907 16 view .LVU388
 1663 003c 0023     		movs	r3, #0
 1664 003e 03E0     		b	.L113
 1665              	.LVL123:
 1666              	.L115:
 908:Middlewares/Third_Party/FreeRTOS/Source/CMSIS_RTOS/cmsis_os.c ****           thePool->markers[i] = 0;
 1667              		.loc 1 908 11 is_stmt 1 discriminator 3 view .LVU389
 1668              		.loc 1 908 18 is_stmt 0 discriminator 3 view .LVU390
 1669 0040 6A68     		ldr	r2, [r5, #4]
 1670              		.loc 1 908 31 discriminator 3 view .LVU391
 1671 0042 0021     		movs	r1, #0
 1672 0044 D154     		strb	r1, [r2, r3]
 907:Middlewares/Third_Party/FreeRTOS/Source/CMSIS_RTOS/cmsis_os.c ****         for (i = 0; i < pool_def->pool_sz; i++) {
 1673              		.loc 1 907 44 is_stmt 1 discriminator 3 view .LVU392
 907:Middlewares/Third_Party/FreeRTOS/Source/CMSIS_RTOS/cmsis_os.c ****         for (i = 0; i < pool_def->pool_sz; i++) {
 1674              		.loc 1 907 45 is_stmt 0 discriminator 3 view .LVU393
 1675 0046 0133     		adds	r3, r3, #1
 1676              	.LVL124:
 1677              	.L113:
 907:Middlewares/Third_Party/FreeRTOS/Source/CMSIS_RTOS/cmsis_os.c ****         for (i = 0; i < pool_def->pool_sz; i++) {
 1678              		.loc 1 907 21 is_stmt 1 discriminator 1 view .LVU394
 907:Middlewares/Third_Party/FreeRTOS/Source/CMSIS_RTOS/cmsis_os.c ****         for (i = 0; i < pool_def->pool_sz; i++) {
 1679              		.loc 1 907 33 is_stmt 0 discriminator 1 view .LVU395
 1680 0048 2268     		ldr	r2, [r4]
 907:Middlewares/Third_Party/FreeRTOS/Source/CMSIS_RTOS/cmsis_os.c ****         for (i = 0; i < pool_def->pool_sz; i++) {
 1681              		.loc 1 907 9 discriminator 1 view .LVU396
 1682 004a 9A42     		cmp	r2, r3
 1683 004c F8D8     		bhi	.L115
 1684              	.LVL125:
 1685              	.L110:
 909:Middlewares/Third_Party/FreeRTOS/Source/CMSIS_RTOS/cmsis_os.c ****         }
 910:Middlewares/Third_Party/FreeRTOS/Source/CMSIS_RTOS/cmsis_os.c ****       }
 911:Middlewares/Third_Party/FreeRTOS/Source/CMSIS_RTOS/cmsis_os.c ****       else {
 912:Middlewares/Third_Party/FreeRTOS/Source/CMSIS_RTOS/cmsis_os.c ****         vPortFree(thePool->markers);
 913:Middlewares/Third_Party/FreeRTOS/Source/CMSIS_RTOS/cmsis_os.c ****         vPortFree(thePool);
 914:Middlewares/Third_Party/FreeRTOS/Source/CMSIS_RTOS/cmsis_os.c ****         thePool = NULL;
 915:Middlewares/Third_Party/FreeRTOS/Source/CMSIS_RTOS/cmsis_os.c ****       }
 916:Middlewares/Third_Party/FreeRTOS/Source/CMSIS_RTOS/cmsis_os.c ****     }
 917:Middlewares/Third_Party/FreeRTOS/Source/CMSIS_RTOS/cmsis_os.c ****     else {
 918:Middlewares/Third_Party/FreeRTOS/Source/CMSIS_RTOS/cmsis_os.c ****       vPortFree(thePool);
 919:Middlewares/Third_Party/FreeRTOS/Source/CMSIS_RTOS/cmsis_os.c ****       thePool = NULL;
 920:Middlewares/Third_Party/FreeRTOS/Source/CMSIS_RTOS/cmsis_os.c ****     }
 921:Middlewares/Third_Party/FreeRTOS/Source/CMSIS_RTOS/cmsis_os.c ****   }
 922:Middlewares/Third_Party/FreeRTOS/Source/CMSIS_RTOS/cmsis_os.c **** 
 923:Middlewares/Third_Party/FreeRTOS/Source/CMSIS_RTOS/cmsis_os.c ****   return thePool;
 924:Middlewares/Third_Party/FreeRTOS/Source/CMSIS_RTOS/cmsis_os.c ****  
 925:Middlewares/Third_Party/FreeRTOS/Source/CMSIS_RTOS/cmsis_os.c **** #else
 926:Middlewares/Third_Party/FreeRTOS/Source/CMSIS_RTOS/cmsis_os.c ****   return NULL;
 927:Middlewares/Third_Party/FreeRTOS/Source/CMSIS_RTOS/cmsis_os.c **** #endif
 928:Middlewares/Third_Party/FreeRTOS/Source/CMSIS_RTOS/cmsis_os.c **** }
 1686              		.loc 1 928 1 view .LVU397
 1687 004e 2846     		mov	r0, r5
ARM GAS  C:\Users\LJH\AppData\Local\Temp\ccdyqIDU.s 			page 51


 1688 0050 F8BD     		pop	{r3, r4, r5, r6, r7, pc}
 1689              	.LVL126:
 1690              	.L119:
 912:Middlewares/Third_Party/FreeRTOS/Source/CMSIS_RTOS/cmsis_os.c ****         vPortFree(thePool);
 1691              		.loc 1 912 9 is_stmt 1 view .LVU398
 1692 0052 6868     		ldr	r0, [r5, #4]
 1693 0054 FFF7FEFF 		bl	vPortFree
 1694              	.LVL127:
 913:Middlewares/Third_Party/FreeRTOS/Source/CMSIS_RTOS/cmsis_os.c ****         thePool = NULL;
 1695              		.loc 1 913 9 view .LVU399
 1696 0058 2846     		mov	r0, r5
 1697 005a FFF7FEFF 		bl	vPortFree
 1698              	.LVL128:
 914:Middlewares/Third_Party/FreeRTOS/Source/CMSIS_RTOS/cmsis_os.c ****       }
 1699              		.loc 1 914 9 view .LVU400
 914:Middlewares/Third_Party/FreeRTOS/Source/CMSIS_RTOS/cmsis_os.c ****       }
 1700              		.loc 1 914 17 is_stmt 0 view .LVU401
 1701 005e 3546     		mov	r5, r6
 1702 0060 F5E7     		b	.L110
 1703              	.LVL129:
 1704              	.L112:
 918:Middlewares/Third_Party/FreeRTOS/Source/CMSIS_RTOS/cmsis_os.c ****       thePool = NULL;
 1705              		.loc 1 918 7 is_stmt 1 view .LVU402
 1706 0062 2846     		mov	r0, r5
 1707 0064 FFF7FEFF 		bl	vPortFree
 1708              	.LVL130:
 919:Middlewares/Third_Party/FreeRTOS/Source/CMSIS_RTOS/cmsis_os.c ****     }
 1709              		.loc 1 919 7 view .LVU403
 919:Middlewares/Third_Party/FreeRTOS/Source/CMSIS_RTOS/cmsis_os.c ****     }
 1710              		.loc 1 919 15 is_stmt 0 view .LVU404
 1711 0068 3D46     		mov	r5, r7
 1712              	.LVL131:
 923:Middlewares/Third_Party/FreeRTOS/Source/CMSIS_RTOS/cmsis_os.c ****  
 1713              		.loc 1 923 3 is_stmt 1 view .LVU405
 923:Middlewares/Third_Party/FreeRTOS/Source/CMSIS_RTOS/cmsis_os.c ****  
 1714              		.loc 1 923 10 is_stmt 0 view .LVU406
 1715 006a F0E7     		b	.L110
 1716              		.cfi_endproc
 1717              	.LFE76:
 1719              		.section	.text.osPoolAlloc,"ax",%progbits
 1720              		.align	1
 1721              		.global	osPoolAlloc
 1722              		.syntax unified
 1723              		.thumb
 1724              		.thumb_func
 1726              	osPoolAlloc:
 1727              	.LVL132:
 1728              	.LFB77:
 929:Middlewares/Third_Party/FreeRTOS/Source/CMSIS_RTOS/cmsis_os.c **** 
 930:Middlewares/Third_Party/FreeRTOS/Source/CMSIS_RTOS/cmsis_os.c **** /**
 931:Middlewares/Third_Party/FreeRTOS/Source/CMSIS_RTOS/cmsis_os.c **** * @brief Allocate a memory block from a memory pool
 932:Middlewares/Third_Party/FreeRTOS/Source/CMSIS_RTOS/cmsis_os.c **** * @param pool_id       memory pool ID obtain referenced with \ref osPoolCreate.
 933:Middlewares/Third_Party/FreeRTOS/Source/CMSIS_RTOS/cmsis_os.c **** * @retval  address of the allocated memory block or NULL in case of no memory available.
 934:Middlewares/Third_Party/FreeRTOS/Source/CMSIS_RTOS/cmsis_os.c **** * @note   MUST REMAIN UNCHANGED: \b osPoolAlloc shall be consistent in every CMSIS-RTOS.
 935:Middlewares/Third_Party/FreeRTOS/Source/CMSIS_RTOS/cmsis_os.c **** */
 936:Middlewares/Third_Party/FreeRTOS/Source/CMSIS_RTOS/cmsis_os.c **** void *osPoolAlloc (osPoolId pool_id)
 937:Middlewares/Third_Party/FreeRTOS/Source/CMSIS_RTOS/cmsis_os.c **** {
ARM GAS  C:\Users\LJH\AppData\Local\Temp\ccdyqIDU.s 			page 52


 1729              		.loc 1 937 1 is_stmt 1 view -0
 1730              		.cfi_startproc
 1731              		@ args = 0, pretend = 0, frame = 0
 1732              		@ frame_needed = 0, uses_anonymous_args = 0
 1733              		.loc 1 937 1 is_stmt 0 view .LVU408
 1734 0000 70B5     		push	{r4, r5, r6, lr}
 1735              	.LCFI44:
 1736              		.cfi_def_cfa_offset 16
 1737              		.cfi_offset 4, -16
 1738              		.cfi_offset 5, -12
 1739              		.cfi_offset 6, -8
 1740              		.cfi_offset 14, -4
 1741 0002 0446     		mov	r4, r0
 938:Middlewares/Third_Party/FreeRTOS/Source/CMSIS_RTOS/cmsis_os.c ****   int dummy = 0;
 1742              		.loc 1 938 3 is_stmt 1 view .LVU409
 1743              	.LVL133:
 939:Middlewares/Third_Party/FreeRTOS/Source/CMSIS_RTOS/cmsis_os.c ****   void *p = NULL;
 1744              		.loc 1 939 3 view .LVU410
 940:Middlewares/Third_Party/FreeRTOS/Source/CMSIS_RTOS/cmsis_os.c ****   uint32_t i;
 1745              		.loc 1 940 3 view .LVU411
 941:Middlewares/Third_Party/FreeRTOS/Source/CMSIS_RTOS/cmsis_os.c ****   uint32_t index;
 1746              		.loc 1 941 3 view .LVU412
 942:Middlewares/Third_Party/FreeRTOS/Source/CMSIS_RTOS/cmsis_os.c ****   
 943:Middlewares/Third_Party/FreeRTOS/Source/CMSIS_RTOS/cmsis_os.c ****   if (inHandlerMode()) {
 1747              		.loc 1 943 3 view .LVU413
 1748              		.loc 1 943 7 is_stmt 0 view .LVU414
 1749 0004 FFF7FEFF 		bl	inHandlerMode
 1750              	.LVL134:
 1751              		.loc 1 943 6 view .LVU415
 1752 0008 58B1     		cbz	r0, .L121
 944:Middlewares/Third_Party/FreeRTOS/Source/CMSIS_RTOS/cmsis_os.c ****     dummy = portSET_INTERRUPT_MASK_FROM_ISR();
 1753              		.loc 1 944 5 is_stmt 1 view .LVU416
 1754              	.LBB10:
 1755              	.LBI10:
 1756              		.file 3 "Middlewares/Third_Party/FreeRTOS/Source/portable/GCC/ARM_CM3/portmacro.h"
   1:Middlewares/Third_Party/FreeRTOS/Source/portable/GCC/ARM_CM3/portmacro.h **** /*
   2:Middlewares/Third_Party/FreeRTOS/Source/portable/GCC/ARM_CM3/portmacro.h ****  * FreeRTOS Kernel V10.0.1
   3:Middlewares/Third_Party/FreeRTOS/Source/portable/GCC/ARM_CM3/portmacro.h ****  * Copyright (C) 2017 Amazon.com, Inc. or its affiliates.  All Rights Reserved.
   4:Middlewares/Third_Party/FreeRTOS/Source/portable/GCC/ARM_CM3/portmacro.h ****  *
   5:Middlewares/Third_Party/FreeRTOS/Source/portable/GCC/ARM_CM3/portmacro.h ****  * Permission is hereby granted, free of charge, to any person obtaining a copy of
   6:Middlewares/Third_Party/FreeRTOS/Source/portable/GCC/ARM_CM3/portmacro.h ****  * this software and associated documentation files (the "Software"), to deal in
   7:Middlewares/Third_Party/FreeRTOS/Source/portable/GCC/ARM_CM3/portmacro.h ****  * the Software without restriction, including without limitation the rights to
   8:Middlewares/Third_Party/FreeRTOS/Source/portable/GCC/ARM_CM3/portmacro.h ****  * use, copy, modify, merge, publish, distribute, sublicense, and/or sell copies of
   9:Middlewares/Third_Party/FreeRTOS/Source/portable/GCC/ARM_CM3/portmacro.h ****  * the Software, and to permit persons to whom the Software is furnished to do so,
  10:Middlewares/Third_Party/FreeRTOS/Source/portable/GCC/ARM_CM3/portmacro.h ****  * subject to the following conditions:
  11:Middlewares/Third_Party/FreeRTOS/Source/portable/GCC/ARM_CM3/portmacro.h ****  *
  12:Middlewares/Third_Party/FreeRTOS/Source/portable/GCC/ARM_CM3/portmacro.h ****  * The above copyright notice and this permission notice shall be included in all
  13:Middlewares/Third_Party/FreeRTOS/Source/portable/GCC/ARM_CM3/portmacro.h ****  * copies or substantial portions of the Software.
  14:Middlewares/Third_Party/FreeRTOS/Source/portable/GCC/ARM_CM3/portmacro.h ****  *
  15:Middlewares/Third_Party/FreeRTOS/Source/portable/GCC/ARM_CM3/portmacro.h ****  * THE SOFTWARE IS PROVIDED "AS IS", WITHOUT WARRANTY OF ANY KIND, EXPRESS OR
  16:Middlewares/Third_Party/FreeRTOS/Source/portable/GCC/ARM_CM3/portmacro.h ****  * IMPLIED, INCLUDING BUT NOT LIMITED TO THE WARRANTIES OF MERCHANTABILITY, FITNESS
  17:Middlewares/Third_Party/FreeRTOS/Source/portable/GCC/ARM_CM3/portmacro.h ****  * FOR A PARTICULAR PURPOSE AND NONINFRINGEMENT. IN NO EVENT SHALL THE AUTHORS OR
  18:Middlewares/Third_Party/FreeRTOS/Source/portable/GCC/ARM_CM3/portmacro.h ****  * COPYRIGHT HOLDERS BE LIABLE FOR ANY CLAIM, DAMAGES OR OTHER LIABILITY, WHETHER
  19:Middlewares/Third_Party/FreeRTOS/Source/portable/GCC/ARM_CM3/portmacro.h ****  * IN AN ACTION OF CONTRACT, TORT OR OTHERWISE, ARISING FROM, OUT OF OR IN
  20:Middlewares/Third_Party/FreeRTOS/Source/portable/GCC/ARM_CM3/portmacro.h ****  * CONNECTION WITH THE SOFTWARE OR THE USE OR OTHER DEALINGS IN THE SOFTWARE.
  21:Middlewares/Third_Party/FreeRTOS/Source/portable/GCC/ARM_CM3/portmacro.h ****  *
  22:Middlewares/Third_Party/FreeRTOS/Source/portable/GCC/ARM_CM3/portmacro.h ****  * http://www.FreeRTOS.org
ARM GAS  C:\Users\LJH\AppData\Local\Temp\ccdyqIDU.s 			page 53


  23:Middlewares/Third_Party/FreeRTOS/Source/portable/GCC/ARM_CM3/portmacro.h ****  * http://aws.amazon.com/freertos
  24:Middlewares/Third_Party/FreeRTOS/Source/portable/GCC/ARM_CM3/portmacro.h ****  *
  25:Middlewares/Third_Party/FreeRTOS/Source/portable/GCC/ARM_CM3/portmacro.h ****  * 1 tab == 4 spaces!
  26:Middlewares/Third_Party/FreeRTOS/Source/portable/GCC/ARM_CM3/portmacro.h ****  */
  27:Middlewares/Third_Party/FreeRTOS/Source/portable/GCC/ARM_CM3/portmacro.h **** 
  28:Middlewares/Third_Party/FreeRTOS/Source/portable/GCC/ARM_CM3/portmacro.h **** 
  29:Middlewares/Third_Party/FreeRTOS/Source/portable/GCC/ARM_CM3/portmacro.h **** #ifndef PORTMACRO_H
  30:Middlewares/Third_Party/FreeRTOS/Source/portable/GCC/ARM_CM3/portmacro.h **** #define PORTMACRO_H
  31:Middlewares/Third_Party/FreeRTOS/Source/portable/GCC/ARM_CM3/portmacro.h **** 
  32:Middlewares/Third_Party/FreeRTOS/Source/portable/GCC/ARM_CM3/portmacro.h **** #ifdef __cplusplus
  33:Middlewares/Third_Party/FreeRTOS/Source/portable/GCC/ARM_CM3/portmacro.h **** extern "C" {
  34:Middlewares/Third_Party/FreeRTOS/Source/portable/GCC/ARM_CM3/portmacro.h **** #endif
  35:Middlewares/Third_Party/FreeRTOS/Source/portable/GCC/ARM_CM3/portmacro.h **** 
  36:Middlewares/Third_Party/FreeRTOS/Source/portable/GCC/ARM_CM3/portmacro.h **** /*-----------------------------------------------------------
  37:Middlewares/Third_Party/FreeRTOS/Source/portable/GCC/ARM_CM3/portmacro.h ****  * Port specific definitions.
  38:Middlewares/Third_Party/FreeRTOS/Source/portable/GCC/ARM_CM3/portmacro.h ****  *
  39:Middlewares/Third_Party/FreeRTOS/Source/portable/GCC/ARM_CM3/portmacro.h ****  * The settings in this file configure FreeRTOS correctly for the
  40:Middlewares/Third_Party/FreeRTOS/Source/portable/GCC/ARM_CM3/portmacro.h ****  * given hardware and compiler.
  41:Middlewares/Third_Party/FreeRTOS/Source/portable/GCC/ARM_CM3/portmacro.h ****  *
  42:Middlewares/Third_Party/FreeRTOS/Source/portable/GCC/ARM_CM3/portmacro.h ****  * These settings should not be altered.
  43:Middlewares/Third_Party/FreeRTOS/Source/portable/GCC/ARM_CM3/portmacro.h ****  *-----------------------------------------------------------
  44:Middlewares/Third_Party/FreeRTOS/Source/portable/GCC/ARM_CM3/portmacro.h ****  */
  45:Middlewares/Third_Party/FreeRTOS/Source/portable/GCC/ARM_CM3/portmacro.h **** 
  46:Middlewares/Third_Party/FreeRTOS/Source/portable/GCC/ARM_CM3/portmacro.h **** /* Type definitions. */
  47:Middlewares/Third_Party/FreeRTOS/Source/portable/GCC/ARM_CM3/portmacro.h **** #define portCHAR		char
  48:Middlewares/Third_Party/FreeRTOS/Source/portable/GCC/ARM_CM3/portmacro.h **** #define portFLOAT		float
  49:Middlewares/Third_Party/FreeRTOS/Source/portable/GCC/ARM_CM3/portmacro.h **** #define portDOUBLE		double
  50:Middlewares/Third_Party/FreeRTOS/Source/portable/GCC/ARM_CM3/portmacro.h **** #define portLONG		long
  51:Middlewares/Third_Party/FreeRTOS/Source/portable/GCC/ARM_CM3/portmacro.h **** #define portSHORT		short
  52:Middlewares/Third_Party/FreeRTOS/Source/portable/GCC/ARM_CM3/portmacro.h **** #define portSTACK_TYPE	uint32_t
  53:Middlewares/Third_Party/FreeRTOS/Source/portable/GCC/ARM_CM3/portmacro.h **** #define portBASE_TYPE	long
  54:Middlewares/Third_Party/FreeRTOS/Source/portable/GCC/ARM_CM3/portmacro.h **** 
  55:Middlewares/Third_Party/FreeRTOS/Source/portable/GCC/ARM_CM3/portmacro.h **** typedef portSTACK_TYPE StackType_t;
  56:Middlewares/Third_Party/FreeRTOS/Source/portable/GCC/ARM_CM3/portmacro.h **** typedef long BaseType_t;
  57:Middlewares/Third_Party/FreeRTOS/Source/portable/GCC/ARM_CM3/portmacro.h **** typedef unsigned long UBaseType_t;
  58:Middlewares/Third_Party/FreeRTOS/Source/portable/GCC/ARM_CM3/portmacro.h **** 
  59:Middlewares/Third_Party/FreeRTOS/Source/portable/GCC/ARM_CM3/portmacro.h **** #if( configUSE_16_BIT_TICKS == 1 )
  60:Middlewares/Third_Party/FreeRTOS/Source/portable/GCC/ARM_CM3/portmacro.h **** 	typedef uint16_t TickType_t;
  61:Middlewares/Third_Party/FreeRTOS/Source/portable/GCC/ARM_CM3/portmacro.h **** 	#define portMAX_DELAY ( TickType_t ) 0xffff
  62:Middlewares/Third_Party/FreeRTOS/Source/portable/GCC/ARM_CM3/portmacro.h **** #else
  63:Middlewares/Third_Party/FreeRTOS/Source/portable/GCC/ARM_CM3/portmacro.h **** 	typedef uint32_t TickType_t;
  64:Middlewares/Third_Party/FreeRTOS/Source/portable/GCC/ARM_CM3/portmacro.h **** 	#define portMAX_DELAY ( TickType_t ) 0xffffffffUL
  65:Middlewares/Third_Party/FreeRTOS/Source/portable/GCC/ARM_CM3/portmacro.h **** 
  66:Middlewares/Third_Party/FreeRTOS/Source/portable/GCC/ARM_CM3/portmacro.h **** 	/* 32-bit tick type on a 32-bit architecture, so reads of the tick count do
  67:Middlewares/Third_Party/FreeRTOS/Source/portable/GCC/ARM_CM3/portmacro.h **** 	not need to be guarded with a critical section. */
  68:Middlewares/Third_Party/FreeRTOS/Source/portable/GCC/ARM_CM3/portmacro.h **** 	#define portTICK_TYPE_IS_ATOMIC 1
  69:Middlewares/Third_Party/FreeRTOS/Source/portable/GCC/ARM_CM3/portmacro.h **** #endif
  70:Middlewares/Third_Party/FreeRTOS/Source/portable/GCC/ARM_CM3/portmacro.h **** /*-----------------------------------------------------------*/
  71:Middlewares/Third_Party/FreeRTOS/Source/portable/GCC/ARM_CM3/portmacro.h **** 
  72:Middlewares/Third_Party/FreeRTOS/Source/portable/GCC/ARM_CM3/portmacro.h **** /* Architecture specifics. */
  73:Middlewares/Third_Party/FreeRTOS/Source/portable/GCC/ARM_CM3/portmacro.h **** #define portSTACK_GROWTH			( -1 )
  74:Middlewares/Third_Party/FreeRTOS/Source/portable/GCC/ARM_CM3/portmacro.h **** #define portTICK_PERIOD_MS			( ( TickType_t ) 1000 / configTICK_RATE_HZ )
  75:Middlewares/Third_Party/FreeRTOS/Source/portable/GCC/ARM_CM3/portmacro.h **** #define portBYTE_ALIGNMENT			8
  76:Middlewares/Third_Party/FreeRTOS/Source/portable/GCC/ARM_CM3/portmacro.h **** /*-----------------------------------------------------------*/
  77:Middlewares/Third_Party/FreeRTOS/Source/portable/GCC/ARM_CM3/portmacro.h **** 
  78:Middlewares/Third_Party/FreeRTOS/Source/portable/GCC/ARM_CM3/portmacro.h **** /* Scheduler utilities. */
  79:Middlewares/Third_Party/FreeRTOS/Source/portable/GCC/ARM_CM3/portmacro.h **** #define portYIELD() 															\
ARM GAS  C:\Users\LJH\AppData\Local\Temp\ccdyqIDU.s 			page 54


  80:Middlewares/Third_Party/FreeRTOS/Source/portable/GCC/ARM_CM3/portmacro.h **** {																				\
  81:Middlewares/Third_Party/FreeRTOS/Source/portable/GCC/ARM_CM3/portmacro.h **** 	/* Set a PendSV to request a context switch. */								\
  82:Middlewares/Third_Party/FreeRTOS/Source/portable/GCC/ARM_CM3/portmacro.h **** 	portNVIC_INT_CTRL_REG = portNVIC_PENDSVSET_BIT;								\
  83:Middlewares/Third_Party/FreeRTOS/Source/portable/GCC/ARM_CM3/portmacro.h **** 																				\
  84:Middlewares/Third_Party/FreeRTOS/Source/portable/GCC/ARM_CM3/portmacro.h **** 	/* Barriers are normally not required but do ensure the code is completely	\
  85:Middlewares/Third_Party/FreeRTOS/Source/portable/GCC/ARM_CM3/portmacro.h **** 	within the specified behaviour for the architecture. */						\
  86:Middlewares/Third_Party/FreeRTOS/Source/portable/GCC/ARM_CM3/portmacro.h **** 	__asm volatile( "dsb" ::: "memory" );										\
  87:Middlewares/Third_Party/FreeRTOS/Source/portable/GCC/ARM_CM3/portmacro.h **** 	__asm volatile( "isb" );													\
  88:Middlewares/Third_Party/FreeRTOS/Source/portable/GCC/ARM_CM3/portmacro.h **** }
  89:Middlewares/Third_Party/FreeRTOS/Source/portable/GCC/ARM_CM3/portmacro.h **** 
  90:Middlewares/Third_Party/FreeRTOS/Source/portable/GCC/ARM_CM3/portmacro.h **** #define portNVIC_INT_CTRL_REG		( * ( ( volatile uint32_t * ) 0xe000ed04 ) )
  91:Middlewares/Third_Party/FreeRTOS/Source/portable/GCC/ARM_CM3/portmacro.h **** #define portNVIC_PENDSVSET_BIT		( 1UL << 28UL )
  92:Middlewares/Third_Party/FreeRTOS/Source/portable/GCC/ARM_CM3/portmacro.h **** #define portEND_SWITCHING_ISR( xSwitchRequired ) if( xSwitchRequired != pdFALSE ) portYIELD()
  93:Middlewares/Third_Party/FreeRTOS/Source/portable/GCC/ARM_CM3/portmacro.h **** #define portYIELD_FROM_ISR( x ) portEND_SWITCHING_ISR( x )
  94:Middlewares/Third_Party/FreeRTOS/Source/portable/GCC/ARM_CM3/portmacro.h **** /*-----------------------------------------------------------*/
  95:Middlewares/Third_Party/FreeRTOS/Source/portable/GCC/ARM_CM3/portmacro.h **** 
  96:Middlewares/Third_Party/FreeRTOS/Source/portable/GCC/ARM_CM3/portmacro.h **** /* Critical section management. */
  97:Middlewares/Third_Party/FreeRTOS/Source/portable/GCC/ARM_CM3/portmacro.h **** extern void vPortEnterCritical( void );
  98:Middlewares/Third_Party/FreeRTOS/Source/portable/GCC/ARM_CM3/portmacro.h **** extern void vPortExitCritical( void );
  99:Middlewares/Third_Party/FreeRTOS/Source/portable/GCC/ARM_CM3/portmacro.h **** #define portSET_INTERRUPT_MASK_FROM_ISR()		ulPortRaiseBASEPRI()
 100:Middlewares/Third_Party/FreeRTOS/Source/portable/GCC/ARM_CM3/portmacro.h **** #define portCLEAR_INTERRUPT_MASK_FROM_ISR(x)	vPortSetBASEPRI(x)
 101:Middlewares/Third_Party/FreeRTOS/Source/portable/GCC/ARM_CM3/portmacro.h **** #define portDISABLE_INTERRUPTS()				vPortRaiseBASEPRI()
 102:Middlewares/Third_Party/FreeRTOS/Source/portable/GCC/ARM_CM3/portmacro.h **** #define portENABLE_INTERRUPTS()					vPortSetBASEPRI(0)
 103:Middlewares/Third_Party/FreeRTOS/Source/portable/GCC/ARM_CM3/portmacro.h **** #define portENTER_CRITICAL()					vPortEnterCritical()
 104:Middlewares/Third_Party/FreeRTOS/Source/portable/GCC/ARM_CM3/portmacro.h **** #define portEXIT_CRITICAL()						vPortExitCritical()
 105:Middlewares/Third_Party/FreeRTOS/Source/portable/GCC/ARM_CM3/portmacro.h **** 
 106:Middlewares/Third_Party/FreeRTOS/Source/portable/GCC/ARM_CM3/portmacro.h **** /*-----------------------------------------------------------*/
 107:Middlewares/Third_Party/FreeRTOS/Source/portable/GCC/ARM_CM3/portmacro.h **** 
 108:Middlewares/Third_Party/FreeRTOS/Source/portable/GCC/ARM_CM3/portmacro.h **** /* Task function macros as described on the FreeRTOS.org WEB site.  These are
 109:Middlewares/Third_Party/FreeRTOS/Source/portable/GCC/ARM_CM3/portmacro.h **** not necessary for to use this port.  They are defined so the common demo files
 110:Middlewares/Third_Party/FreeRTOS/Source/portable/GCC/ARM_CM3/portmacro.h **** (which build with all the ports) will build. */
 111:Middlewares/Third_Party/FreeRTOS/Source/portable/GCC/ARM_CM3/portmacro.h **** #define portTASK_FUNCTION_PROTO( vFunction, pvParameters ) void vFunction( void *pvParameters )
 112:Middlewares/Third_Party/FreeRTOS/Source/portable/GCC/ARM_CM3/portmacro.h **** #define portTASK_FUNCTION( vFunction, pvParameters ) void vFunction( void *pvParameters )
 113:Middlewares/Third_Party/FreeRTOS/Source/portable/GCC/ARM_CM3/portmacro.h **** /*-----------------------------------------------------------*/
 114:Middlewares/Third_Party/FreeRTOS/Source/portable/GCC/ARM_CM3/portmacro.h **** 
 115:Middlewares/Third_Party/FreeRTOS/Source/portable/GCC/ARM_CM3/portmacro.h **** /* Tickless idle/low power functionality. */
 116:Middlewares/Third_Party/FreeRTOS/Source/portable/GCC/ARM_CM3/portmacro.h **** #ifndef portSUPPRESS_TICKS_AND_SLEEP
 117:Middlewares/Third_Party/FreeRTOS/Source/portable/GCC/ARM_CM3/portmacro.h **** 	extern void vPortSuppressTicksAndSleep( TickType_t xExpectedIdleTime );
 118:Middlewares/Third_Party/FreeRTOS/Source/portable/GCC/ARM_CM3/portmacro.h **** 	#define portSUPPRESS_TICKS_AND_SLEEP( xExpectedIdleTime ) vPortSuppressTicksAndSleep( xExpectedIdl
 119:Middlewares/Third_Party/FreeRTOS/Source/portable/GCC/ARM_CM3/portmacro.h **** #endif
 120:Middlewares/Third_Party/FreeRTOS/Source/portable/GCC/ARM_CM3/portmacro.h **** /*-----------------------------------------------------------*/
 121:Middlewares/Third_Party/FreeRTOS/Source/portable/GCC/ARM_CM3/portmacro.h **** 
 122:Middlewares/Third_Party/FreeRTOS/Source/portable/GCC/ARM_CM3/portmacro.h **** /* Architecture specific optimisations. */
 123:Middlewares/Third_Party/FreeRTOS/Source/portable/GCC/ARM_CM3/portmacro.h **** #ifndef configUSE_PORT_OPTIMISED_TASK_SELECTION
 124:Middlewares/Third_Party/FreeRTOS/Source/portable/GCC/ARM_CM3/portmacro.h **** 	#define configUSE_PORT_OPTIMISED_TASK_SELECTION 1
 125:Middlewares/Third_Party/FreeRTOS/Source/portable/GCC/ARM_CM3/portmacro.h **** #endif
 126:Middlewares/Third_Party/FreeRTOS/Source/portable/GCC/ARM_CM3/portmacro.h **** 
 127:Middlewares/Third_Party/FreeRTOS/Source/portable/GCC/ARM_CM3/portmacro.h **** #if configUSE_PORT_OPTIMISED_TASK_SELECTION == 1
 128:Middlewares/Third_Party/FreeRTOS/Source/portable/GCC/ARM_CM3/portmacro.h **** 
 129:Middlewares/Third_Party/FreeRTOS/Source/portable/GCC/ARM_CM3/portmacro.h **** 	/* Generic helper function. */
 130:Middlewares/Third_Party/FreeRTOS/Source/portable/GCC/ARM_CM3/portmacro.h **** 	__attribute__( ( always_inline ) ) static inline uint8_t ucPortCountLeadingZeros( uint32_t ulBitma
 131:Middlewares/Third_Party/FreeRTOS/Source/portable/GCC/ARM_CM3/portmacro.h **** 	{
 132:Middlewares/Third_Party/FreeRTOS/Source/portable/GCC/ARM_CM3/portmacro.h **** 	uint8_t ucReturn;
 133:Middlewares/Third_Party/FreeRTOS/Source/portable/GCC/ARM_CM3/portmacro.h **** 
 134:Middlewares/Third_Party/FreeRTOS/Source/portable/GCC/ARM_CM3/portmacro.h **** 		__asm volatile ( "clz %0, %1" : "=r" ( ucReturn ) : "r" ( ulBitmap ) : "memory" );
 135:Middlewares/Third_Party/FreeRTOS/Source/portable/GCC/ARM_CM3/portmacro.h **** 		return ucReturn;
 136:Middlewares/Third_Party/FreeRTOS/Source/portable/GCC/ARM_CM3/portmacro.h **** 	}
ARM GAS  C:\Users\LJH\AppData\Local\Temp\ccdyqIDU.s 			page 55


 137:Middlewares/Third_Party/FreeRTOS/Source/portable/GCC/ARM_CM3/portmacro.h **** 
 138:Middlewares/Third_Party/FreeRTOS/Source/portable/GCC/ARM_CM3/portmacro.h **** 	/* Check the configuration. */
 139:Middlewares/Third_Party/FreeRTOS/Source/portable/GCC/ARM_CM3/portmacro.h **** 	#if( configMAX_PRIORITIES > 32 )
 140:Middlewares/Third_Party/FreeRTOS/Source/portable/GCC/ARM_CM3/portmacro.h **** 		#error configUSE_PORT_OPTIMISED_TASK_SELECTION can only be set to 1 when configMAX_PRIORITIES is 
 141:Middlewares/Third_Party/FreeRTOS/Source/portable/GCC/ARM_CM3/portmacro.h **** 	#endif
 142:Middlewares/Third_Party/FreeRTOS/Source/portable/GCC/ARM_CM3/portmacro.h **** 
 143:Middlewares/Third_Party/FreeRTOS/Source/portable/GCC/ARM_CM3/portmacro.h **** 	/* Store/clear the ready priorities in a bit map. */
 144:Middlewares/Third_Party/FreeRTOS/Source/portable/GCC/ARM_CM3/portmacro.h **** 	#define portRECORD_READY_PRIORITY( uxPriority, uxReadyPriorities ) ( uxReadyPriorities ) |= ( 1UL 
 145:Middlewares/Third_Party/FreeRTOS/Source/portable/GCC/ARM_CM3/portmacro.h **** 	#define portRESET_READY_PRIORITY( uxPriority, uxReadyPriorities ) ( uxReadyPriorities ) &= ~( 1UL 
 146:Middlewares/Third_Party/FreeRTOS/Source/portable/GCC/ARM_CM3/portmacro.h **** 
 147:Middlewares/Third_Party/FreeRTOS/Source/portable/GCC/ARM_CM3/portmacro.h **** 	/*-----------------------------------------------------------*/
 148:Middlewares/Third_Party/FreeRTOS/Source/portable/GCC/ARM_CM3/portmacro.h **** 
 149:Middlewares/Third_Party/FreeRTOS/Source/portable/GCC/ARM_CM3/portmacro.h **** 	#define portGET_HIGHEST_PRIORITY( uxTopPriority, uxReadyPriorities ) uxTopPriority = ( 31UL - ( ui
 150:Middlewares/Third_Party/FreeRTOS/Source/portable/GCC/ARM_CM3/portmacro.h **** 
 151:Middlewares/Third_Party/FreeRTOS/Source/portable/GCC/ARM_CM3/portmacro.h **** #endif /* configUSE_PORT_OPTIMISED_TASK_SELECTION */
 152:Middlewares/Third_Party/FreeRTOS/Source/portable/GCC/ARM_CM3/portmacro.h **** 
 153:Middlewares/Third_Party/FreeRTOS/Source/portable/GCC/ARM_CM3/portmacro.h **** /*-----------------------------------------------------------*/
 154:Middlewares/Third_Party/FreeRTOS/Source/portable/GCC/ARM_CM3/portmacro.h **** 
 155:Middlewares/Third_Party/FreeRTOS/Source/portable/GCC/ARM_CM3/portmacro.h **** #ifdef configASSERT
 156:Middlewares/Third_Party/FreeRTOS/Source/portable/GCC/ARM_CM3/portmacro.h **** 	void vPortValidateInterruptPriority( void );
 157:Middlewares/Third_Party/FreeRTOS/Source/portable/GCC/ARM_CM3/portmacro.h **** 	#define portASSERT_IF_INTERRUPT_PRIORITY_INVALID() 	vPortValidateInterruptPriority()
 158:Middlewares/Third_Party/FreeRTOS/Source/portable/GCC/ARM_CM3/portmacro.h **** #endif
 159:Middlewares/Third_Party/FreeRTOS/Source/portable/GCC/ARM_CM3/portmacro.h **** 
 160:Middlewares/Third_Party/FreeRTOS/Source/portable/GCC/ARM_CM3/portmacro.h **** /* portNOP() is not required by this port. */
 161:Middlewares/Third_Party/FreeRTOS/Source/portable/GCC/ARM_CM3/portmacro.h **** #define portNOP()
 162:Middlewares/Third_Party/FreeRTOS/Source/portable/GCC/ARM_CM3/portmacro.h **** 
 163:Middlewares/Third_Party/FreeRTOS/Source/portable/GCC/ARM_CM3/portmacro.h **** #define portINLINE	__inline
 164:Middlewares/Third_Party/FreeRTOS/Source/portable/GCC/ARM_CM3/portmacro.h **** 
 165:Middlewares/Third_Party/FreeRTOS/Source/portable/GCC/ARM_CM3/portmacro.h **** #ifndef portFORCE_INLINE
 166:Middlewares/Third_Party/FreeRTOS/Source/portable/GCC/ARM_CM3/portmacro.h **** 	#define portFORCE_INLINE inline __attribute__(( always_inline))
 167:Middlewares/Third_Party/FreeRTOS/Source/portable/GCC/ARM_CM3/portmacro.h **** #endif
 168:Middlewares/Third_Party/FreeRTOS/Source/portable/GCC/ARM_CM3/portmacro.h **** 
 169:Middlewares/Third_Party/FreeRTOS/Source/portable/GCC/ARM_CM3/portmacro.h **** portFORCE_INLINE static BaseType_t xPortIsInsideInterrupt( void )
 170:Middlewares/Third_Party/FreeRTOS/Source/portable/GCC/ARM_CM3/portmacro.h **** {
 171:Middlewares/Third_Party/FreeRTOS/Source/portable/GCC/ARM_CM3/portmacro.h **** uint32_t ulCurrentInterrupt;
 172:Middlewares/Third_Party/FreeRTOS/Source/portable/GCC/ARM_CM3/portmacro.h **** BaseType_t xReturn;
 173:Middlewares/Third_Party/FreeRTOS/Source/portable/GCC/ARM_CM3/portmacro.h **** 
 174:Middlewares/Third_Party/FreeRTOS/Source/portable/GCC/ARM_CM3/portmacro.h **** 	/* Obtain the number of the currently executing interrupt. */
 175:Middlewares/Third_Party/FreeRTOS/Source/portable/GCC/ARM_CM3/portmacro.h **** 	__asm volatile( "mrs %0, ipsr" : "=r"( ulCurrentInterrupt ) :: "memory" );
 176:Middlewares/Third_Party/FreeRTOS/Source/portable/GCC/ARM_CM3/portmacro.h **** 
 177:Middlewares/Third_Party/FreeRTOS/Source/portable/GCC/ARM_CM3/portmacro.h **** 	if( ulCurrentInterrupt == 0 )
 178:Middlewares/Third_Party/FreeRTOS/Source/portable/GCC/ARM_CM3/portmacro.h **** 	{
 179:Middlewares/Third_Party/FreeRTOS/Source/portable/GCC/ARM_CM3/portmacro.h **** 		xReturn = pdFALSE;
 180:Middlewares/Third_Party/FreeRTOS/Source/portable/GCC/ARM_CM3/portmacro.h **** 	}
 181:Middlewares/Third_Party/FreeRTOS/Source/portable/GCC/ARM_CM3/portmacro.h **** 	else
 182:Middlewares/Third_Party/FreeRTOS/Source/portable/GCC/ARM_CM3/portmacro.h **** 	{
 183:Middlewares/Third_Party/FreeRTOS/Source/portable/GCC/ARM_CM3/portmacro.h **** 		xReturn = pdTRUE;
 184:Middlewares/Third_Party/FreeRTOS/Source/portable/GCC/ARM_CM3/portmacro.h **** 	}
 185:Middlewares/Third_Party/FreeRTOS/Source/portable/GCC/ARM_CM3/portmacro.h **** 
 186:Middlewares/Third_Party/FreeRTOS/Source/portable/GCC/ARM_CM3/portmacro.h **** 	return xReturn;
 187:Middlewares/Third_Party/FreeRTOS/Source/portable/GCC/ARM_CM3/portmacro.h **** }
 188:Middlewares/Third_Party/FreeRTOS/Source/portable/GCC/ARM_CM3/portmacro.h **** 
 189:Middlewares/Third_Party/FreeRTOS/Source/portable/GCC/ARM_CM3/portmacro.h **** /*-----------------------------------------------------------*/
 190:Middlewares/Third_Party/FreeRTOS/Source/portable/GCC/ARM_CM3/portmacro.h **** 
 191:Middlewares/Third_Party/FreeRTOS/Source/portable/GCC/ARM_CM3/portmacro.h **** portFORCE_INLINE static void vPortRaiseBASEPRI( void )
 192:Middlewares/Third_Party/FreeRTOS/Source/portable/GCC/ARM_CM3/portmacro.h **** {
 193:Middlewares/Third_Party/FreeRTOS/Source/portable/GCC/ARM_CM3/portmacro.h **** uint32_t ulNewBASEPRI;
ARM GAS  C:\Users\LJH\AppData\Local\Temp\ccdyqIDU.s 			page 56


 194:Middlewares/Third_Party/FreeRTOS/Source/portable/GCC/ARM_CM3/portmacro.h **** 
 195:Middlewares/Third_Party/FreeRTOS/Source/portable/GCC/ARM_CM3/portmacro.h **** 	__asm volatile
 196:Middlewares/Third_Party/FreeRTOS/Source/portable/GCC/ARM_CM3/portmacro.h **** 	(
 197:Middlewares/Third_Party/FreeRTOS/Source/portable/GCC/ARM_CM3/portmacro.h **** 		"	mov %0, %1												\n" \
 198:Middlewares/Third_Party/FreeRTOS/Source/portable/GCC/ARM_CM3/portmacro.h **** 		"	msr basepri, %0											\n" \
 199:Middlewares/Third_Party/FreeRTOS/Source/portable/GCC/ARM_CM3/portmacro.h **** 		"	isb														\n" \
 200:Middlewares/Third_Party/FreeRTOS/Source/portable/GCC/ARM_CM3/portmacro.h **** 		"	dsb														\n" \
 201:Middlewares/Third_Party/FreeRTOS/Source/portable/GCC/ARM_CM3/portmacro.h **** 		:"=r" (ulNewBASEPRI) : "i" ( configMAX_SYSCALL_INTERRUPT_PRIORITY ) : "memory"
 202:Middlewares/Third_Party/FreeRTOS/Source/portable/GCC/ARM_CM3/portmacro.h **** 	);
 203:Middlewares/Third_Party/FreeRTOS/Source/portable/GCC/ARM_CM3/portmacro.h **** }
 204:Middlewares/Third_Party/FreeRTOS/Source/portable/GCC/ARM_CM3/portmacro.h **** 
 205:Middlewares/Third_Party/FreeRTOS/Source/portable/GCC/ARM_CM3/portmacro.h **** /*-----------------------------------------------------------*/
 206:Middlewares/Third_Party/FreeRTOS/Source/portable/GCC/ARM_CM3/portmacro.h **** 
 207:Middlewares/Third_Party/FreeRTOS/Source/portable/GCC/ARM_CM3/portmacro.h **** portFORCE_INLINE static uint32_t ulPortRaiseBASEPRI( void )
 1757              		.loc 3 207 34 view .LVU417
 1758              	.LBB11:
 208:Middlewares/Third_Party/FreeRTOS/Source/portable/GCC/ARM_CM3/portmacro.h **** {
 209:Middlewares/Third_Party/FreeRTOS/Source/portable/GCC/ARM_CM3/portmacro.h **** uint32_t ulOriginalBASEPRI, ulNewBASEPRI;
 1759              		.loc 3 209 1 view .LVU418
 210:Middlewares/Third_Party/FreeRTOS/Source/portable/GCC/ARM_CM3/portmacro.h **** 
 211:Middlewares/Third_Party/FreeRTOS/Source/portable/GCC/ARM_CM3/portmacro.h **** 	__asm volatile
 1760              		.loc 3 211 2 view .LVU419
 1761              		.syntax unified
 1762              	@ 211 "Middlewares/Third_Party/FreeRTOS/Source/portable/GCC/ARM_CM3/portmacro.h" 1
 1763 000a EFF31185 			mrs r5, basepri											
 1764 000e 4FF05003 		mov r3, #80												
 1765 0012 83F31188 		msr basepri, r3											
 1766 0016 BFF36F8F 		isb														
 1767 001a BFF34F8F 		dsb														
 1768              	
 1769              	@ 0 "" 2
 1770              	.LVL135:
 212:Middlewares/Third_Party/FreeRTOS/Source/portable/GCC/ARM_CM3/portmacro.h **** 	(
 213:Middlewares/Third_Party/FreeRTOS/Source/portable/GCC/ARM_CM3/portmacro.h **** 		"	mrs %0, basepri											\n" \
 214:Middlewares/Third_Party/FreeRTOS/Source/portable/GCC/ARM_CM3/portmacro.h **** 		"	mov %1, %2												\n" \
 215:Middlewares/Third_Party/FreeRTOS/Source/portable/GCC/ARM_CM3/portmacro.h **** 		"	msr basepri, %1											\n" \
 216:Middlewares/Third_Party/FreeRTOS/Source/portable/GCC/ARM_CM3/portmacro.h **** 		"	isb														\n" \
 217:Middlewares/Third_Party/FreeRTOS/Source/portable/GCC/ARM_CM3/portmacro.h **** 		"	dsb														\n" \
 218:Middlewares/Third_Party/FreeRTOS/Source/portable/GCC/ARM_CM3/portmacro.h **** 		:"=r" (ulOriginalBASEPRI), "=r" (ulNewBASEPRI) : "i" ( configMAX_SYSCALL_INTERRUPT_PRIORITY ) : "
 219:Middlewares/Third_Party/FreeRTOS/Source/portable/GCC/ARM_CM3/portmacro.h **** 	);
 220:Middlewares/Third_Party/FreeRTOS/Source/portable/GCC/ARM_CM3/portmacro.h **** 
 221:Middlewares/Third_Party/FreeRTOS/Source/portable/GCC/ARM_CM3/portmacro.h **** 	/* This return will not be reached but is necessary to prevent compiler
 222:Middlewares/Third_Party/FreeRTOS/Source/portable/GCC/ARM_CM3/portmacro.h **** 	warnings. */
 223:Middlewares/Third_Party/FreeRTOS/Source/portable/GCC/ARM_CM3/portmacro.h **** 	return ulOriginalBASEPRI;
 1771              		.loc 3 223 2 view .LVU420
 1772              		.thumb
 1773              		.syntax unified
 1774              	.L122:
 1775              		.loc 3 223 2 is_stmt 0 view .LVU421
 1776              	.LBE11:
 1777              	.LBE10:
 945:Middlewares/Third_Party/FreeRTOS/Source/CMSIS_RTOS/cmsis_os.c ****   }
 946:Middlewares/Third_Party/FreeRTOS/Source/CMSIS_RTOS/cmsis_os.c ****   else {
 947:Middlewares/Third_Party/FreeRTOS/Source/CMSIS_RTOS/cmsis_os.c ****     vPortEnterCritical();
 948:Middlewares/Third_Party/FreeRTOS/Source/CMSIS_RTOS/cmsis_os.c ****   }
 949:Middlewares/Third_Party/FreeRTOS/Source/CMSIS_RTOS/cmsis_os.c ****   
 950:Middlewares/Third_Party/FreeRTOS/Source/CMSIS_RTOS/cmsis_os.c ****   for (i = 0; i < pool_id->pool_sz; i++) {
ARM GAS  C:\Users\LJH\AppData\Local\Temp\ccdyqIDU.s 			page 57


 1778              		.loc 1 950 3 is_stmt 1 view .LVU422
 1779              		.loc 1 950 10 is_stmt 0 view .LVU423
 1780 001e 0021     		movs	r1, #0
 1781              		.loc 1 950 3 view .LVU424
 1782 0020 04E0     		b	.L123
 1783              	.LVL136:
 1784              	.L121:
 1785              		.loc 1 950 3 view .LVU425
 1786 0022 0546     		mov	r5, r0
 947:Middlewares/Third_Party/FreeRTOS/Source/CMSIS_RTOS/cmsis_os.c ****   }
 1787              		.loc 1 947 5 is_stmt 1 view .LVU426
 1788 0024 FFF7FEFF 		bl	vPortEnterCritical
 1789              	.LVL137:
 1790 0028 F9E7     		b	.L122
 1791              	.LVL138:
 1792              	.L124:
 1793              		.loc 1 950 37 discriminator 2 view .LVU427
 1794              		.loc 1 950 38 is_stmt 0 discriminator 2 view .LVU428
 1795 002a 0131     		adds	r1, r1, #1
 1796              	.LVL139:
 1797              	.L123:
 1798              		.loc 1 950 15 is_stmt 1 discriminator 1 view .LVU429
 1799              		.loc 1 950 26 is_stmt 0 discriminator 1 view .LVU430
 1800 002c A268     		ldr	r2, [r4, #8]
 1801              		.loc 1 950 3 discriminator 1 view .LVU431
 1802 002e 8A42     		cmp	r2, r1
 1803 0030 12D9     		bls	.L130
 951:Middlewares/Third_Party/FreeRTOS/Source/CMSIS_RTOS/cmsis_os.c ****     index = (pool_id->currentIndex + i) % pool_id->pool_sz;
 1804              		.loc 1 951 5 is_stmt 1 view .LVU432
 1805              		.loc 1 951 21 is_stmt 0 view .LVU433
 1806 0032 2369     		ldr	r3, [r4, #16]
 1807              		.loc 1 951 36 view .LVU434
 1808 0034 0B44     		add	r3, r3, r1
 1809              		.loc 1 951 11 view .LVU435
 1810 0036 B3FBF2F0 		udiv	r0, r3, r2
 1811 003a 02FB1033 		mls	r3, r2, r0, r3
 1812              	.LVL140:
 952:Middlewares/Third_Party/FreeRTOS/Source/CMSIS_RTOS/cmsis_os.c ****     
 953:Middlewares/Third_Party/FreeRTOS/Source/CMSIS_RTOS/cmsis_os.c ****     if (pool_id->markers[index] == 0) {
 1813              		.loc 1 953 5 is_stmt 1 view .LVU436
 1814              		.loc 1 953 16 is_stmt 0 view .LVU437
 1815 003e 6268     		ldr	r2, [r4, #4]
 1816              		.loc 1 953 25 view .LVU438
 1817 0040 D018     		adds	r0, r2, r3
 1818 0042 D25C     		ldrb	r2, [r2, r3]	@ zero_extendqisi2
 1819              		.loc 1 953 8 view .LVU439
 1820 0044 002A     		cmp	r2, #0
 1821 0046 F0D1     		bne	.L124
 954:Middlewares/Third_Party/FreeRTOS/Source/CMSIS_RTOS/cmsis_os.c ****       pool_id->markers[index] = 1;
 1822              		.loc 1 954 7 is_stmt 1 view .LVU440
 1823              		.loc 1 954 31 is_stmt 0 view .LVU441
 1824 0048 0122     		movs	r2, #1
 1825 004a 0270     		strb	r2, [r0]
 955:Middlewares/Third_Party/FreeRTOS/Source/CMSIS_RTOS/cmsis_os.c ****       p = (void *)((uint32_t)(pool_id->pool) + (index * pool_id->item_sz));
 1826              		.loc 1 955 7 is_stmt 1 view .LVU442
 1827              		.loc 1 955 38 is_stmt 0 view .LVU443
 1828 004c 2668     		ldr	r6, [r4]
ARM GAS  C:\Users\LJH\AppData\Local\Temp\ccdyqIDU.s 			page 58


 1829              		.loc 1 955 64 view .LVU444
 1830 004e E268     		ldr	r2, [r4, #12]
 1831              		.loc 1 955 46 view .LVU445
 1832 0050 03FB0266 		mla	r6, r3, r2, r6
 1833              	.LVL141:
 956:Middlewares/Third_Party/FreeRTOS/Source/CMSIS_RTOS/cmsis_os.c ****       pool_id->currentIndex = index;
 1834              		.loc 1 956 7 is_stmt 1 view .LVU446
 1835              		.loc 1 956 29 is_stmt 0 view .LVU447
 1836 0054 2361     		str	r3, [r4, #16]
 957:Middlewares/Third_Party/FreeRTOS/Source/CMSIS_RTOS/cmsis_os.c ****       break;
 1837              		.loc 1 957 7 is_stmt 1 view .LVU448
 1838 0056 00E0     		b	.L125
 1839              	.LVL142:
 1840              	.L130:
 939:Middlewares/Third_Party/FreeRTOS/Source/CMSIS_RTOS/cmsis_os.c ****   uint32_t i;
 1841              		.loc 1 939 9 is_stmt 0 view .LVU449
 1842 0058 0026     		movs	r6, #0
 1843              	.LVL143:
 1844              	.L125:
 958:Middlewares/Third_Party/FreeRTOS/Source/CMSIS_RTOS/cmsis_os.c ****     }
 959:Middlewares/Third_Party/FreeRTOS/Source/CMSIS_RTOS/cmsis_os.c ****   }
 960:Middlewares/Third_Party/FreeRTOS/Source/CMSIS_RTOS/cmsis_os.c ****   
 961:Middlewares/Third_Party/FreeRTOS/Source/CMSIS_RTOS/cmsis_os.c ****   if (inHandlerMode()) {
 1845              		.loc 1 961 3 is_stmt 1 view .LVU450
 1846              		.loc 1 961 7 is_stmt 0 view .LVU451
 1847 005a FFF7FEFF 		bl	inHandlerMode
 1848              	.LVL144:
 1849              		.loc 1 961 6 view .LVU452
 1850 005e 18B1     		cbz	r0, .L127
 962:Middlewares/Third_Party/FreeRTOS/Source/CMSIS_RTOS/cmsis_os.c ****     portCLEAR_INTERRUPT_MASK_FROM_ISR(dummy);
 1851              		.loc 1 962 5 is_stmt 1 view .LVU453
 1852              	.LVL145:
 1853              	.LBB12:
 1854              	.LBI12:
 224:Middlewares/Third_Party/FreeRTOS/Source/portable/GCC/ARM_CM3/portmacro.h **** }
 225:Middlewares/Third_Party/FreeRTOS/Source/portable/GCC/ARM_CM3/portmacro.h **** /*-----------------------------------------------------------*/
 226:Middlewares/Third_Party/FreeRTOS/Source/portable/GCC/ARM_CM3/portmacro.h **** 
 227:Middlewares/Third_Party/FreeRTOS/Source/portable/GCC/ARM_CM3/portmacro.h **** portFORCE_INLINE static void vPortSetBASEPRI( uint32_t ulNewMaskValue )
 1855              		.loc 3 227 30 view .LVU454
 1856              	.LBB13:
 228:Middlewares/Third_Party/FreeRTOS/Source/portable/GCC/ARM_CM3/portmacro.h **** {
 229:Middlewares/Third_Party/FreeRTOS/Source/portable/GCC/ARM_CM3/portmacro.h **** 	__asm volatile
 1857              		.loc 3 229 2 view .LVU455
 1858              		.syntax unified
 1859              	@ 229 "Middlewares/Third_Party/FreeRTOS/Source/portable/GCC/ARM_CM3/portmacro.h" 1
 1860 0060 85F31188 			msr basepri, r5	
 1861              	@ 0 "" 2
 1862              	.LVL146:
 1863              		.thumb
 1864              		.syntax unified
 1865              	.L120:
 1866              		.loc 3 229 2 is_stmt 0 view .LVU456
 1867              	.LBE13:
 1868              	.LBE12:
 963:Middlewares/Third_Party/FreeRTOS/Source/CMSIS_RTOS/cmsis_os.c ****   }
 964:Middlewares/Third_Party/FreeRTOS/Source/CMSIS_RTOS/cmsis_os.c ****   else {
 965:Middlewares/Third_Party/FreeRTOS/Source/CMSIS_RTOS/cmsis_os.c ****     vPortExitCritical();
ARM GAS  C:\Users\LJH\AppData\Local\Temp\ccdyqIDU.s 			page 59


 966:Middlewares/Third_Party/FreeRTOS/Source/CMSIS_RTOS/cmsis_os.c ****   }
 967:Middlewares/Third_Party/FreeRTOS/Source/CMSIS_RTOS/cmsis_os.c ****   
 968:Middlewares/Third_Party/FreeRTOS/Source/CMSIS_RTOS/cmsis_os.c ****   return p;
 969:Middlewares/Third_Party/FreeRTOS/Source/CMSIS_RTOS/cmsis_os.c **** }
 1869              		.loc 1 969 1 view .LVU457
 1870 0064 3046     		mov	r0, r6
 1871 0066 70BD     		pop	{r4, r5, r6, pc}
 1872              	.LVL147:
 1873              	.L127:
 965:Middlewares/Third_Party/FreeRTOS/Source/CMSIS_RTOS/cmsis_os.c ****   }
 1874              		.loc 1 965 5 is_stmt 1 view .LVU458
 1875 0068 FFF7FEFF 		bl	vPortExitCritical
 1876              	.LVL148:
 968:Middlewares/Third_Party/FreeRTOS/Source/CMSIS_RTOS/cmsis_os.c **** }
 1877              		.loc 1 968 3 view .LVU459
 968:Middlewares/Third_Party/FreeRTOS/Source/CMSIS_RTOS/cmsis_os.c **** }
 1878              		.loc 1 968 10 is_stmt 0 view .LVU460
 1879 006c FAE7     		b	.L120
 1880              		.cfi_endproc
 1881              	.LFE77:
 1883              		.section	.text.osPoolCAlloc,"ax",%progbits
 1884              		.align	1
 1885              		.global	osPoolCAlloc
 1886              		.syntax unified
 1887              		.thumb
 1888              		.thumb_func
 1890              	osPoolCAlloc:
 1891              	.LVL149:
 1892              	.LFB78:
 970:Middlewares/Third_Party/FreeRTOS/Source/CMSIS_RTOS/cmsis_os.c **** 
 971:Middlewares/Third_Party/FreeRTOS/Source/CMSIS_RTOS/cmsis_os.c **** /**
 972:Middlewares/Third_Party/FreeRTOS/Source/CMSIS_RTOS/cmsis_os.c **** * @brief Allocate a memory block from a memory pool and set memory block to zero
 973:Middlewares/Third_Party/FreeRTOS/Source/CMSIS_RTOS/cmsis_os.c **** * @param  pool_id       memory pool ID obtain referenced with \ref osPoolCreate.
 974:Middlewares/Third_Party/FreeRTOS/Source/CMSIS_RTOS/cmsis_os.c **** * @retval  address of the allocated memory block or NULL in case of no memory available.
 975:Middlewares/Third_Party/FreeRTOS/Source/CMSIS_RTOS/cmsis_os.c **** * @note   MUST REMAIN UNCHANGED: \b osPoolCAlloc shall be consistent in every CMSIS-RTOS.
 976:Middlewares/Third_Party/FreeRTOS/Source/CMSIS_RTOS/cmsis_os.c **** */
 977:Middlewares/Third_Party/FreeRTOS/Source/CMSIS_RTOS/cmsis_os.c **** void *osPoolCAlloc (osPoolId pool_id)
 978:Middlewares/Third_Party/FreeRTOS/Source/CMSIS_RTOS/cmsis_os.c **** {
 1893              		.loc 1 978 1 is_stmt 1 view -0
 1894              		.cfi_startproc
 1895              		@ args = 0, pretend = 0, frame = 0
 1896              		@ frame_needed = 0, uses_anonymous_args = 0
 1897              		.loc 1 978 1 is_stmt 0 view .LVU462
 1898 0000 08B5     		push	{r3, lr}
 1899              	.LCFI45:
 1900              		.cfi_def_cfa_offset 8
 1901              		.cfi_offset 3, -8
 1902              		.cfi_offset 14, -4
 979:Middlewares/Third_Party/FreeRTOS/Source/CMSIS_RTOS/cmsis_os.c ****   void *p = osPoolAlloc(pool_id);
 1903              		.loc 1 979 3 is_stmt 1 view .LVU463
 1904              		.loc 1 979 13 is_stmt 0 view .LVU464
 1905 0002 FFF7FEFF 		bl	osPoolAlloc
 1906              	.LVL150:
 980:Middlewares/Third_Party/FreeRTOS/Source/CMSIS_RTOS/cmsis_os.c ****   
 981:Middlewares/Third_Party/FreeRTOS/Source/CMSIS_RTOS/cmsis_os.c ****   if (p != NULL)
 1907              		.loc 1 981 3 is_stmt 1 view .LVU465
 1908              		.loc 1 981 6 is_stmt 0 view .LVU466
ARM GAS  C:\Users\LJH\AppData\Local\Temp\ccdyqIDU.s 			page 60


 1909 0006 08B1     		cbz	r0, .L131
 982:Middlewares/Third_Party/FreeRTOS/Source/CMSIS_RTOS/cmsis_os.c ****   {
 983:Middlewares/Third_Party/FreeRTOS/Source/CMSIS_RTOS/cmsis_os.c ****     memset(p, 0, sizeof(pool_id->pool_sz));
 1910              		.loc 1 983 5 is_stmt 1 view .LVU467
 1911 0008 0023     		movs	r3, #0
 1912 000a 0360     		str	r3, [r0]	@ unaligned
 984:Middlewares/Third_Party/FreeRTOS/Source/CMSIS_RTOS/cmsis_os.c ****   }
 985:Middlewares/Third_Party/FreeRTOS/Source/CMSIS_RTOS/cmsis_os.c ****   
 986:Middlewares/Third_Party/FreeRTOS/Source/CMSIS_RTOS/cmsis_os.c ****   return p;
 1913              		.loc 1 986 3 view .LVU468
 1914              	.L131:
 987:Middlewares/Third_Party/FreeRTOS/Source/CMSIS_RTOS/cmsis_os.c **** }
 1915              		.loc 1 987 1 is_stmt 0 view .LVU469
 1916 000c 08BD     		pop	{r3, pc}
 1917              		.cfi_endproc
 1918              	.LFE78:
 1920              		.section	.text.osPoolFree,"ax",%progbits
 1921              		.align	1
 1922              		.global	osPoolFree
 1923              		.syntax unified
 1924              		.thumb
 1925              		.thumb_func
 1927              	osPoolFree:
 1928              	.LVL151:
 1929              	.LFB79:
 988:Middlewares/Third_Party/FreeRTOS/Source/CMSIS_RTOS/cmsis_os.c **** 
 989:Middlewares/Third_Party/FreeRTOS/Source/CMSIS_RTOS/cmsis_os.c **** /**
 990:Middlewares/Third_Party/FreeRTOS/Source/CMSIS_RTOS/cmsis_os.c **** * @brief Return an allocated memory block back to a specific memory pool
 991:Middlewares/Third_Party/FreeRTOS/Source/CMSIS_RTOS/cmsis_os.c **** * @param  pool_id       memory pool ID obtain referenced with \ref osPoolCreate.
 992:Middlewares/Third_Party/FreeRTOS/Source/CMSIS_RTOS/cmsis_os.c **** * @param  block         address of the allocated memory block that is returned to the memory pool.
 993:Middlewares/Third_Party/FreeRTOS/Source/CMSIS_RTOS/cmsis_os.c **** * @retval  status code that indicates the execution status of the function.
 994:Middlewares/Third_Party/FreeRTOS/Source/CMSIS_RTOS/cmsis_os.c **** * @note   MUST REMAIN UNCHANGED: \b osPoolFree shall be consistent in every CMSIS-RTOS.
 995:Middlewares/Third_Party/FreeRTOS/Source/CMSIS_RTOS/cmsis_os.c **** */
 996:Middlewares/Third_Party/FreeRTOS/Source/CMSIS_RTOS/cmsis_os.c **** osStatus osPoolFree (osPoolId pool_id, void *block)
 997:Middlewares/Third_Party/FreeRTOS/Source/CMSIS_RTOS/cmsis_os.c **** {
 1930              		.loc 1 997 1 is_stmt 1 view -0
 1931              		.cfi_startproc
 1932              		@ args = 0, pretend = 0, frame = 0
 1933              		@ frame_needed = 0, uses_anonymous_args = 0
 1934              		@ link register save eliminated.
 998:Middlewares/Third_Party/FreeRTOS/Source/CMSIS_RTOS/cmsis_os.c ****   uint32_t index;
 1935              		.loc 1 998 3 view .LVU471
 999:Middlewares/Third_Party/FreeRTOS/Source/CMSIS_RTOS/cmsis_os.c ****   
1000:Middlewares/Third_Party/FreeRTOS/Source/CMSIS_RTOS/cmsis_os.c ****   if (pool_id == NULL) {
 1936              		.loc 1 1000 3 view .LVU472
 1937              		.loc 1 1000 6 is_stmt 0 view .LVU473
 1938 0000 0346     		mov	r3, r0
 1939 0002 98B1     		cbz	r0, .L136
1001:Middlewares/Third_Party/FreeRTOS/Source/CMSIS_RTOS/cmsis_os.c ****     return osErrorParameter;
1002:Middlewares/Third_Party/FreeRTOS/Source/CMSIS_RTOS/cmsis_os.c ****   }
1003:Middlewares/Third_Party/FreeRTOS/Source/CMSIS_RTOS/cmsis_os.c ****   
1004:Middlewares/Third_Party/FreeRTOS/Source/CMSIS_RTOS/cmsis_os.c ****   if (block == NULL) {
 1940              		.loc 1 1004 3 is_stmt 1 view .LVU474
 1941              		.loc 1 1004 6 is_stmt 0 view .LVU475
 1942 0004 A1B1     		cbz	r1, .L137
1005:Middlewares/Third_Party/FreeRTOS/Source/CMSIS_RTOS/cmsis_os.c ****     return osErrorParameter;
1006:Middlewares/Third_Party/FreeRTOS/Source/CMSIS_RTOS/cmsis_os.c ****   }
ARM GAS  C:\Users\LJH\AppData\Local\Temp\ccdyqIDU.s 			page 61


1007:Middlewares/Third_Party/FreeRTOS/Source/CMSIS_RTOS/cmsis_os.c ****   
1008:Middlewares/Third_Party/FreeRTOS/Source/CMSIS_RTOS/cmsis_os.c ****   if (block < pool_id->pool) {
 1943              		.loc 1 1008 3 is_stmt 1 view .LVU476
 1944              		.loc 1 1008 22 is_stmt 0 view .LVU477
 1945 0006 0268     		ldr	r2, [r0]
 1946              		.loc 1 1008 6 view .LVU478
 1947 0008 8A42     		cmp	r2, r1
 1948 000a 13D8     		bhi	.L138
1009:Middlewares/Third_Party/FreeRTOS/Source/CMSIS_RTOS/cmsis_os.c ****     return osErrorParameter;
1010:Middlewares/Third_Party/FreeRTOS/Source/CMSIS_RTOS/cmsis_os.c ****   }
1011:Middlewares/Third_Party/FreeRTOS/Source/CMSIS_RTOS/cmsis_os.c ****   
1012:Middlewares/Third_Party/FreeRTOS/Source/CMSIS_RTOS/cmsis_os.c ****   index = (uint32_t)block - (uint32_t)(pool_id->pool);
 1949              		.loc 1 1012 3 is_stmt 1 view .LVU479
 1950              		.loc 1 1012 9 is_stmt 0 view .LVU480
 1951 000c 891A     		subs	r1, r1, r2
 1952              	.LVL152:
1013:Middlewares/Third_Party/FreeRTOS/Source/CMSIS_RTOS/cmsis_os.c ****   if (index % pool_id->item_sz) {
 1953              		.loc 1 1013 3 is_stmt 1 view .LVU481
 1954              		.loc 1 1013 22 is_stmt 0 view .LVU482
 1955 000e C268     		ldr	r2, [r0, #12]
 1956              		.loc 1 1013 13 view .LVU483
 1957 0010 B1FBF2F0 		udiv	r0, r1, r2
 1958              	.LVL153:
 1959              		.loc 1 1013 13 view .LVU484
 1960 0014 02FB1010 		mls	r0, r2, r0, r1
 1961              		.loc 1 1013 6 view .LVU485
 1962 0018 70B9     		cbnz	r0, .L139
1014:Middlewares/Third_Party/FreeRTOS/Source/CMSIS_RTOS/cmsis_os.c ****     return osErrorParameter;
1015:Middlewares/Third_Party/FreeRTOS/Source/CMSIS_RTOS/cmsis_os.c ****   }
1016:Middlewares/Third_Party/FreeRTOS/Source/CMSIS_RTOS/cmsis_os.c ****   index = index / pool_id->item_sz;
 1963              		.loc 1 1016 3 is_stmt 1 view .LVU486
 1964              		.loc 1 1016 9 is_stmt 0 view .LVU487
 1965 001a B1FBF2F1 		udiv	r1, r1, r2
 1966              	.LVL154:
1017:Middlewares/Third_Party/FreeRTOS/Source/CMSIS_RTOS/cmsis_os.c ****   if (index >= pool_id->pool_sz) {
 1967              		.loc 1 1017 3 is_stmt 1 view .LVU488
 1968              		.loc 1 1017 23 is_stmt 0 view .LVU489
 1969 001e 9A68     		ldr	r2, [r3, #8]
 1970              		.loc 1 1017 6 view .LVU490
 1971 0020 8A42     		cmp	r2, r1
 1972 0022 0BD9     		bls	.L140
1018:Middlewares/Third_Party/FreeRTOS/Source/CMSIS_RTOS/cmsis_os.c ****     return osErrorParameter;
1019:Middlewares/Third_Party/FreeRTOS/Source/CMSIS_RTOS/cmsis_os.c ****   }
1020:Middlewares/Third_Party/FreeRTOS/Source/CMSIS_RTOS/cmsis_os.c ****   
1021:Middlewares/Third_Party/FreeRTOS/Source/CMSIS_RTOS/cmsis_os.c ****   pool_id->markers[index] = 0;
 1973              		.loc 1 1021 3 is_stmt 1 view .LVU491
 1974              		.loc 1 1021 10 is_stmt 0 view .LVU492
 1975 0024 5B68     		ldr	r3, [r3, #4]
 1976              	.LVL155:
 1977              		.loc 1 1021 27 view .LVU493
 1978 0026 0022     		movs	r2, #0
 1979 0028 5A54     		strb	r2, [r3, r1]
1022:Middlewares/Third_Party/FreeRTOS/Source/CMSIS_RTOS/cmsis_os.c ****   
1023:Middlewares/Third_Party/FreeRTOS/Source/CMSIS_RTOS/cmsis_os.c ****   return osOK;
 1980              		.loc 1 1023 3 is_stmt 1 view .LVU494
 1981              		.loc 1 1023 10 is_stmt 0 view .LVU495
 1982 002a 7047     		bx	lr
ARM GAS  C:\Users\LJH\AppData\Local\Temp\ccdyqIDU.s 			page 62


 1983              	.LVL156:
 1984              	.L136:
1001:Middlewares/Third_Party/FreeRTOS/Source/CMSIS_RTOS/cmsis_os.c ****   }
 1985              		.loc 1 1001 12 view .LVU496
 1986 002c 8020     		movs	r0, #128
 1987              	.LVL157:
1001:Middlewares/Third_Party/FreeRTOS/Source/CMSIS_RTOS/cmsis_os.c ****   }
 1988              		.loc 1 1001 12 view .LVU497
 1989 002e 7047     		bx	lr
 1990              	.LVL158:
 1991              	.L137:
1005:Middlewares/Third_Party/FreeRTOS/Source/CMSIS_RTOS/cmsis_os.c ****   }
 1992              		.loc 1 1005 12 view .LVU498
 1993 0030 8020     		movs	r0, #128
 1994              	.LVL159:
1005:Middlewares/Third_Party/FreeRTOS/Source/CMSIS_RTOS/cmsis_os.c ****   }
 1995              		.loc 1 1005 12 view .LVU499
 1996 0032 7047     		bx	lr
 1997              	.LVL160:
 1998              	.L138:
1009:Middlewares/Third_Party/FreeRTOS/Source/CMSIS_RTOS/cmsis_os.c ****   }
 1999              		.loc 1 1009 12 view .LVU500
 2000 0034 8020     		movs	r0, #128
 2001              	.LVL161:
1009:Middlewares/Third_Party/FreeRTOS/Source/CMSIS_RTOS/cmsis_os.c ****   }
 2002              		.loc 1 1009 12 view .LVU501
 2003 0036 7047     		bx	lr
 2004              	.LVL162:
 2005              	.L139:
1014:Middlewares/Third_Party/FreeRTOS/Source/CMSIS_RTOS/cmsis_os.c ****   }
 2006              		.loc 1 1014 12 view .LVU502
 2007 0038 8020     		movs	r0, #128
 2008 003a 7047     		bx	lr
 2009              	.L140:
1018:Middlewares/Third_Party/FreeRTOS/Source/CMSIS_RTOS/cmsis_os.c ****   }
 2010              		.loc 1 1018 12 view .LVU503
 2011 003c 8020     		movs	r0, #128
1024:Middlewares/Third_Party/FreeRTOS/Source/CMSIS_RTOS/cmsis_os.c **** }
 2012              		.loc 1 1024 1 view .LVU504
 2013 003e 7047     		bx	lr
 2014              		.cfi_endproc
 2015              	.LFE79:
 2017              		.section	.text.osMessageCreate,"ax",%progbits
 2018              		.align	1
 2019              		.global	osMessageCreate
 2020              		.syntax unified
 2021              		.thumb
 2022              		.thumb_func
 2024              	osMessageCreate:
 2025              	.LVL163:
 2026              	.LFB80:
1025:Middlewares/Third_Party/FreeRTOS/Source/CMSIS_RTOS/cmsis_os.c **** 
1026:Middlewares/Third_Party/FreeRTOS/Source/CMSIS_RTOS/cmsis_os.c **** 
1027:Middlewares/Third_Party/FreeRTOS/Source/CMSIS_RTOS/cmsis_os.c **** #endif   /* Use Memory Pool Management */
1028:Middlewares/Third_Party/FreeRTOS/Source/CMSIS_RTOS/cmsis_os.c **** 
1029:Middlewares/Third_Party/FreeRTOS/Source/CMSIS_RTOS/cmsis_os.c **** /*******************   Message Queue Management Functions  *********************/
1030:Middlewares/Third_Party/FreeRTOS/Source/CMSIS_RTOS/cmsis_os.c **** 
ARM GAS  C:\Users\LJH\AppData\Local\Temp\ccdyqIDU.s 			page 63


1031:Middlewares/Third_Party/FreeRTOS/Source/CMSIS_RTOS/cmsis_os.c **** #if (defined (osFeature_MessageQ)  &&  (osFeature_MessageQ != 0)) /* Use Message Queues */
1032:Middlewares/Third_Party/FreeRTOS/Source/CMSIS_RTOS/cmsis_os.c **** 
1033:Middlewares/Third_Party/FreeRTOS/Source/CMSIS_RTOS/cmsis_os.c **** /**
1034:Middlewares/Third_Party/FreeRTOS/Source/CMSIS_RTOS/cmsis_os.c **** * @brief Create and Initialize a Message Queue
1035:Middlewares/Third_Party/FreeRTOS/Source/CMSIS_RTOS/cmsis_os.c **** * @param queue_def     queue definition referenced with \ref osMessageQ.
1036:Middlewares/Third_Party/FreeRTOS/Source/CMSIS_RTOS/cmsis_os.c **** * @param  thread_id     thread ID (obtained by \ref osThreadCreate or \ref osThreadGetId) or NULL.
1037:Middlewares/Third_Party/FreeRTOS/Source/CMSIS_RTOS/cmsis_os.c **** * @retval  message queue ID for reference by other functions or NULL in case of error.
1038:Middlewares/Third_Party/FreeRTOS/Source/CMSIS_RTOS/cmsis_os.c **** * @note   MUST REMAIN UNCHANGED: \b osMessageCreate shall be consistent in every CMSIS-RTOS.
1039:Middlewares/Third_Party/FreeRTOS/Source/CMSIS_RTOS/cmsis_os.c **** */
1040:Middlewares/Third_Party/FreeRTOS/Source/CMSIS_RTOS/cmsis_os.c **** osMessageQId osMessageCreate (const osMessageQDef_t *queue_def, osThreadId thread_id)
1041:Middlewares/Third_Party/FreeRTOS/Source/CMSIS_RTOS/cmsis_os.c **** {
 2027              		.loc 1 1041 1 is_stmt 1 view -0
 2028              		.cfi_startproc
 2029              		@ args = 0, pretend = 0, frame = 0
 2030              		@ frame_needed = 0, uses_anonymous_args = 0
 2031              		.loc 1 1041 1 is_stmt 0 view .LVU506
 2032 0000 00B5     		push	{lr}
 2033              	.LCFI46:
 2034              		.cfi_def_cfa_offset 4
 2035              		.cfi_offset 14, -4
 2036 0002 83B0     		sub	sp, sp, #12
 2037              	.LCFI47:
 2038              		.cfi_def_cfa_offset 16
1042:Middlewares/Third_Party/FreeRTOS/Source/CMSIS_RTOS/cmsis_os.c ****   (void) thread_id;
 2039              		.loc 1 1042 3 is_stmt 1 view .LVU507
1043:Middlewares/Third_Party/FreeRTOS/Source/CMSIS_RTOS/cmsis_os.c ****   
1044:Middlewares/Third_Party/FreeRTOS/Source/CMSIS_RTOS/cmsis_os.c **** #if( configSUPPORT_STATIC_ALLOCATION == 1 ) && ( configSUPPORT_DYNAMIC_ALLOCATION == 1 )
1045:Middlewares/Third_Party/FreeRTOS/Source/CMSIS_RTOS/cmsis_os.c **** 
1046:Middlewares/Third_Party/FreeRTOS/Source/CMSIS_RTOS/cmsis_os.c ****   if ((queue_def->buffer != NULL) && (queue_def->controlblock != NULL)) {
 2040              		.loc 1 1046 3 view .LVU508
 2041              		.loc 1 1046 17 is_stmt 0 view .LVU509
 2042 0004 8268     		ldr	r2, [r0, #8]
 2043              		.loc 1 1046 6 view .LVU510
 2044 0006 42B1     		cbz	r2, .L142
 2045              		.loc 1 1046 48 discriminator 1 view .LVU511
 2046 0008 C368     		ldr	r3, [r0, #12]
 2047              		.loc 1 1046 35 discriminator 1 view .LVU512
 2048 000a 33B1     		cbz	r3, .L142
1047:Middlewares/Third_Party/FreeRTOS/Source/CMSIS_RTOS/cmsis_os.c ****     return xQueueCreateStatic(queue_def->queue_sz, queue_def->item_sz, queue_def->buffer, queue_def
 2049              		.loc 1 1047 5 is_stmt 1 view .LVU513
 2050              		.loc 1 1047 12 is_stmt 0 view .LVU514
 2051 000c 0021     		movs	r1, #0
 2052              	.LVL164:
 2053              		.loc 1 1047 12 view .LVU515
 2054 000e 0091     		str	r1, [sp]
 2055 0010 4168     		ldr	r1, [r0, #4]
 2056 0012 0068     		ldr	r0, [r0]
 2057              	.LVL165:
 2058              		.loc 1 1047 12 view .LVU516
 2059 0014 FFF7FEFF 		bl	xQueueGenericCreateStatic
 2060              	.LVL166:
 2061 0018 04E0     		b	.L141
 2062              	.LVL167:
 2063              	.L142:
1048:Middlewares/Third_Party/FreeRTOS/Source/CMSIS_RTOS/cmsis_os.c ****   }
1049:Middlewares/Third_Party/FreeRTOS/Source/CMSIS_RTOS/cmsis_os.c ****   else {
1050:Middlewares/Third_Party/FreeRTOS/Source/CMSIS_RTOS/cmsis_os.c ****     return xQueueCreate(queue_def->queue_sz, queue_def->item_sz);
ARM GAS  C:\Users\LJH\AppData\Local\Temp\ccdyqIDU.s 			page 64


 2064              		.loc 1 1050 5 is_stmt 1 view .LVU517
 2065              		.loc 1 1050 12 is_stmt 0 view .LVU518
 2066 001a 0022     		movs	r2, #0
 2067 001c 4168     		ldr	r1, [r0, #4]
 2068              	.LVL168:
 2069              		.loc 1 1050 12 view .LVU519
 2070 001e 0068     		ldr	r0, [r0]
 2071              	.LVL169:
 2072              		.loc 1 1050 12 view .LVU520
 2073 0020 FFF7FEFF 		bl	xQueueGenericCreate
 2074              	.LVL170:
 2075              	.L141:
1051:Middlewares/Third_Party/FreeRTOS/Source/CMSIS_RTOS/cmsis_os.c ****   }
1052:Middlewares/Third_Party/FreeRTOS/Source/CMSIS_RTOS/cmsis_os.c **** #elif ( configSUPPORT_STATIC_ALLOCATION == 1 )
1053:Middlewares/Third_Party/FreeRTOS/Source/CMSIS_RTOS/cmsis_os.c ****   return xQueueCreateStatic(queue_def->queue_sz, queue_def->item_sz, queue_def->buffer, queue_def->
1054:Middlewares/Third_Party/FreeRTOS/Source/CMSIS_RTOS/cmsis_os.c **** #else  
1055:Middlewares/Third_Party/FreeRTOS/Source/CMSIS_RTOS/cmsis_os.c ****   return xQueueCreate(queue_def->queue_sz, queue_def->item_sz);
1056:Middlewares/Third_Party/FreeRTOS/Source/CMSIS_RTOS/cmsis_os.c **** #endif
1057:Middlewares/Third_Party/FreeRTOS/Source/CMSIS_RTOS/cmsis_os.c **** }
 2076              		.loc 1 1057 1 view .LVU521
 2077 0024 03B0     		add	sp, sp, #12
 2078              	.LCFI48:
 2079              		.cfi_def_cfa_offset 4
 2080              		@ sp needed
 2081 0026 5DF804FB 		ldr	pc, [sp], #4
 2082              		.cfi_endproc
 2083              	.LFE80:
 2085              		.section	.text.osMessagePut,"ax",%progbits
 2086              		.align	1
 2087              		.global	osMessagePut
 2088              		.syntax unified
 2089              		.thumb
 2090              		.thumb_func
 2092              	osMessagePut:
 2093              	.LVL171:
 2094              	.LFB81:
1058:Middlewares/Third_Party/FreeRTOS/Source/CMSIS_RTOS/cmsis_os.c **** 
1059:Middlewares/Third_Party/FreeRTOS/Source/CMSIS_RTOS/cmsis_os.c **** /**
1060:Middlewares/Third_Party/FreeRTOS/Source/CMSIS_RTOS/cmsis_os.c **** * @brief Put a Message to a Queue.
1061:Middlewares/Third_Party/FreeRTOS/Source/CMSIS_RTOS/cmsis_os.c **** * @param  queue_id  message queue ID obtained with \ref osMessageCreate.
1062:Middlewares/Third_Party/FreeRTOS/Source/CMSIS_RTOS/cmsis_os.c **** * @param  info      message information.
1063:Middlewares/Third_Party/FreeRTOS/Source/CMSIS_RTOS/cmsis_os.c **** * @param  millisec  timeout value or 0 in case of no time-out.
1064:Middlewares/Third_Party/FreeRTOS/Source/CMSIS_RTOS/cmsis_os.c **** * @retval status code that indicates the execution status of the function.
1065:Middlewares/Third_Party/FreeRTOS/Source/CMSIS_RTOS/cmsis_os.c **** * @note   MUST REMAIN UNCHANGED: \b osMessagePut shall be consistent in every CMSIS-RTOS.
1066:Middlewares/Third_Party/FreeRTOS/Source/CMSIS_RTOS/cmsis_os.c **** */
1067:Middlewares/Third_Party/FreeRTOS/Source/CMSIS_RTOS/cmsis_os.c **** osStatus osMessagePut (osMessageQId queue_id, uint32_t info, uint32_t millisec)
1068:Middlewares/Third_Party/FreeRTOS/Source/CMSIS_RTOS/cmsis_os.c **** {
 2095              		.loc 1 1068 1 is_stmt 1 view -0
 2096              		.cfi_startproc
 2097              		@ args = 0, pretend = 0, frame = 16
 2098              		@ frame_needed = 0, uses_anonymous_args = 0
 2099              		.loc 1 1068 1 is_stmt 0 view .LVU523
 2100 0000 30B5     		push	{r4, r5, lr}
 2101              	.LCFI49:
 2102              		.cfi_def_cfa_offset 12
 2103              		.cfi_offset 4, -12
 2104              		.cfi_offset 5, -8
ARM GAS  C:\Users\LJH\AppData\Local\Temp\ccdyqIDU.s 			page 65


 2105              		.cfi_offset 14, -4
 2106 0002 85B0     		sub	sp, sp, #20
 2107              	.LCFI50:
 2108              		.cfi_def_cfa_offset 32
 2109 0004 0446     		mov	r4, r0
 2110 0006 0191     		str	r1, [sp, #4]
1069:Middlewares/Third_Party/FreeRTOS/Source/CMSIS_RTOS/cmsis_os.c ****   portBASE_TYPE taskWoken = pdFALSE;
 2111              		.loc 1 1069 3 is_stmt 1 view .LVU524
 2112              		.loc 1 1069 17 is_stmt 0 view .LVU525
 2113 0008 0023     		movs	r3, #0
 2114 000a 0393     		str	r3, [sp, #12]
1070:Middlewares/Third_Party/FreeRTOS/Source/CMSIS_RTOS/cmsis_os.c ****   TickType_t ticks;
 2115              		.loc 1 1070 3 is_stmt 1 view .LVU526
1071:Middlewares/Third_Party/FreeRTOS/Source/CMSIS_RTOS/cmsis_os.c ****   
1072:Middlewares/Third_Party/FreeRTOS/Source/CMSIS_RTOS/cmsis_os.c ****   ticks = millisec / portTICK_PERIOD_MS;
 2116              		.loc 1 1072 3 view .LVU527
 2117              	.LVL172:
1073:Middlewares/Third_Party/FreeRTOS/Source/CMSIS_RTOS/cmsis_os.c ****   if (ticks == 0) {
 2118              		.loc 1 1073 3 view .LVU528
 2119              		.loc 1 1073 6 is_stmt 0 view .LVU529
 2120 000c 1546     		mov	r5, r2
 2121 000e 02B9     		cbnz	r2, .L146
1074:Middlewares/Third_Party/FreeRTOS/Source/CMSIS_RTOS/cmsis_os.c ****     ticks = 1;
 2122              		.loc 1 1074 11 view .LVU530
 2123 0010 0125     		movs	r5, #1
 2124              	.L146:
 2125              	.LVL173:
1075:Middlewares/Third_Party/FreeRTOS/Source/CMSIS_RTOS/cmsis_os.c ****   }
1076:Middlewares/Third_Party/FreeRTOS/Source/CMSIS_RTOS/cmsis_os.c ****   
1077:Middlewares/Third_Party/FreeRTOS/Source/CMSIS_RTOS/cmsis_os.c ****   if (inHandlerMode()) {
 2126              		.loc 1 1077 3 is_stmt 1 view .LVU531
 2127              		.loc 1 1077 7 is_stmt 0 view .LVU532
 2128 0012 FFF7FEFF 		bl	inHandlerMode
 2129              	.LVL174:
 2130              		.loc 1 1077 6 view .LVU533
 2131 0016 A8B1     		cbz	r0, .L147
1078:Middlewares/Third_Party/FreeRTOS/Source/CMSIS_RTOS/cmsis_os.c ****     if (xQueueSendFromISR(queue_id, &info, &taskWoken) != pdTRUE) {
 2132              		.loc 1 1078 5 is_stmt 1 view .LVU534
 2133              		.loc 1 1078 9 is_stmt 0 view .LVU535
 2134 0018 0023     		movs	r3, #0
 2135 001a 03AA     		add	r2, sp, #12
 2136 001c 01A9     		add	r1, sp, #4
 2137 001e 2046     		mov	r0, r4
 2138 0020 FFF7FEFF 		bl	xQueueGenericSendFromISR
 2139              	.LVL175:
 2140              		.loc 1 1078 8 view .LVU536
 2141 0024 0128     		cmp	r0, #1
 2142 0026 18D1     		bne	.L150
1079:Middlewares/Third_Party/FreeRTOS/Source/CMSIS_RTOS/cmsis_os.c ****       return osErrorOS;
1080:Middlewares/Third_Party/FreeRTOS/Source/CMSIS_RTOS/cmsis_os.c ****     }
1081:Middlewares/Third_Party/FreeRTOS/Source/CMSIS_RTOS/cmsis_os.c ****     portEND_SWITCHING_ISR(taskWoken);
 2143              		.loc 1 1081 5 is_stmt 1 view .LVU537
 2144 0028 039B     		ldr	r3, [sp, #12]
 2145 002a C3B1     		cbz	r3, .L151
 2146              		.loc 1 1081 5 discriminator 1 view .LVU538
 2147 002c 4FF0E023 		mov	r3, #-536813568
 2148 0030 4FF08052 		mov	r2, #268435456
ARM GAS  C:\Users\LJH\AppData\Local\Temp\ccdyqIDU.s 			page 66


 2149 0034 C3F8042D 		str	r2, [r3, #3332]
 2150              		.loc 1 1081 5 discriminator 1 view .LVU539
 2151              		.syntax unified
 2152              	@ 1081 "Middlewares/Third_Party/FreeRTOS/Source/CMSIS_RTOS/cmsis_os.c" 1
 2153 0038 BFF34F8F 		dsb
 2154              	@ 0 "" 2
 2155              		.loc 1 1081 5 discriminator 1 view .LVU540
 2156              	@ 1081 "Middlewares/Third_Party/FreeRTOS/Source/CMSIS_RTOS/cmsis_os.c" 1
 2157 003c BFF36F8F 		isb
 2158              	@ 0 "" 2
1082:Middlewares/Third_Party/FreeRTOS/Source/CMSIS_RTOS/cmsis_os.c ****   }
1083:Middlewares/Third_Party/FreeRTOS/Source/CMSIS_RTOS/cmsis_os.c ****   else {
1084:Middlewares/Third_Party/FreeRTOS/Source/CMSIS_RTOS/cmsis_os.c ****     if (xQueueSend(queue_id, &info, ticks) != pdTRUE) {
1085:Middlewares/Third_Party/FreeRTOS/Source/CMSIS_RTOS/cmsis_os.c ****       return osErrorOS;
1086:Middlewares/Third_Party/FreeRTOS/Source/CMSIS_RTOS/cmsis_os.c ****     }
1087:Middlewares/Third_Party/FreeRTOS/Source/CMSIS_RTOS/cmsis_os.c ****   }
1088:Middlewares/Third_Party/FreeRTOS/Source/CMSIS_RTOS/cmsis_os.c ****   
1089:Middlewares/Third_Party/FreeRTOS/Source/CMSIS_RTOS/cmsis_os.c ****   return osOK;
 2159              		.loc 1 1089 10 is_stmt 0 discriminator 1 view .LVU541
 2160              		.thumb
 2161              		.syntax unified
 2162 0040 0020     		movs	r0, #0
 2163 0042 08E0     		b	.L145
 2164              	.L147:
1084:Middlewares/Third_Party/FreeRTOS/Source/CMSIS_RTOS/cmsis_os.c ****       return osErrorOS;
 2165              		.loc 1 1084 5 is_stmt 1 view .LVU542
1084:Middlewares/Third_Party/FreeRTOS/Source/CMSIS_RTOS/cmsis_os.c ****       return osErrorOS;
 2166              		.loc 1 1084 9 is_stmt 0 view .LVU543
 2167 0044 0023     		movs	r3, #0
 2168 0046 2A46     		mov	r2, r5
 2169 0048 01A9     		add	r1, sp, #4
 2170 004a 2046     		mov	r0, r4
 2171 004c FFF7FEFF 		bl	xQueueGenericSend
 2172              	.LVL176:
1084:Middlewares/Third_Party/FreeRTOS/Source/CMSIS_RTOS/cmsis_os.c ****       return osErrorOS;
 2173              		.loc 1 1084 8 view .LVU544
 2174 0050 0128     		cmp	r0, #1
 2175 0052 06D1     		bne	.L152
 2176              		.loc 1 1089 10 view .LVU545
 2177 0054 0020     		movs	r0, #0
 2178              	.L145:
1090:Middlewares/Third_Party/FreeRTOS/Source/CMSIS_RTOS/cmsis_os.c **** }
 2179              		.loc 1 1090 1 view .LVU546
 2180 0056 05B0     		add	sp, sp, #20
 2181              	.LCFI51:
 2182              		.cfi_remember_state
 2183              		.cfi_def_cfa_offset 12
 2184              		@ sp needed
 2185 0058 30BD     		pop	{r4, r5, pc}
 2186              	.LVL177:
 2187              	.L150:
 2188              	.LCFI52:
 2189              		.cfi_restore_state
1079:Middlewares/Third_Party/FreeRTOS/Source/CMSIS_RTOS/cmsis_os.c ****     }
 2190              		.loc 1 1079 14 view .LVU547
 2191 005a FF20     		movs	r0, #255
 2192 005c FBE7     		b	.L145
ARM GAS  C:\Users\LJH\AppData\Local\Temp\ccdyqIDU.s 			page 67


 2193              	.L151:
1089:Middlewares/Third_Party/FreeRTOS/Source/CMSIS_RTOS/cmsis_os.c **** }
 2194              		.loc 1 1089 10 view .LVU548
 2195 005e 0020     		movs	r0, #0
 2196 0060 F9E7     		b	.L145
 2197              	.L152:
1085:Middlewares/Third_Party/FreeRTOS/Source/CMSIS_RTOS/cmsis_os.c ****     }
 2198              		.loc 1 1085 14 view .LVU549
 2199 0062 FF20     		movs	r0, #255
 2200 0064 F7E7     		b	.L145
 2201              		.cfi_endproc
 2202              	.LFE81:
 2204              		.section	.text.osMessageGet,"ax",%progbits
 2205              		.align	1
 2206              		.global	osMessageGet
 2207              		.syntax unified
 2208              		.thumb
 2209              		.thumb_func
 2211              	osMessageGet:
 2212              	.LVL178:
 2213              	.LFB82:
1091:Middlewares/Third_Party/FreeRTOS/Source/CMSIS_RTOS/cmsis_os.c **** 
1092:Middlewares/Third_Party/FreeRTOS/Source/CMSIS_RTOS/cmsis_os.c **** /**
1093:Middlewares/Third_Party/FreeRTOS/Source/CMSIS_RTOS/cmsis_os.c **** * @brief Get a Message or Wait for a Message from a Queue.
1094:Middlewares/Third_Party/FreeRTOS/Source/CMSIS_RTOS/cmsis_os.c **** * @param  queue_id  message queue ID obtained with \ref osMessageCreate.
1095:Middlewares/Third_Party/FreeRTOS/Source/CMSIS_RTOS/cmsis_os.c **** * @param  millisec  timeout value or 0 in case of no time-out.
1096:Middlewares/Third_Party/FreeRTOS/Source/CMSIS_RTOS/cmsis_os.c **** * @retval event information that includes status code.
1097:Middlewares/Third_Party/FreeRTOS/Source/CMSIS_RTOS/cmsis_os.c **** * @note   MUST REMAIN UNCHANGED: \b osMessageGet shall be consistent in every CMSIS-RTOS.
1098:Middlewares/Third_Party/FreeRTOS/Source/CMSIS_RTOS/cmsis_os.c **** */
1099:Middlewares/Third_Party/FreeRTOS/Source/CMSIS_RTOS/cmsis_os.c **** osEvent osMessageGet (osMessageQId queue_id, uint32_t millisec)
1100:Middlewares/Third_Party/FreeRTOS/Source/CMSIS_RTOS/cmsis_os.c **** {
 2214              		.loc 1 1100 1 is_stmt 1 view -0
 2215              		.cfi_startproc
 2216              		@ args = 0, pretend = 0, frame = 16
 2217              		@ frame_needed = 0, uses_anonymous_args = 0
 2218              		.loc 1 1100 1 is_stmt 0 view .LVU551
 2219 0000 70B5     		push	{r4, r5, r6, lr}
 2220              	.LCFI53:
 2221              		.cfi_def_cfa_offset 16
 2222              		.cfi_offset 4, -16
 2223              		.cfi_offset 5, -12
 2224              		.cfi_offset 6, -8
 2225              		.cfi_offset 14, -4
 2226 0002 84B0     		sub	sp, sp, #16
 2227              	.LCFI54:
 2228              		.cfi_def_cfa_offset 32
 2229 0004 0446     		mov	r4, r0
1101:Middlewares/Third_Party/FreeRTOS/Source/CMSIS_RTOS/cmsis_os.c ****   portBASE_TYPE taskWoken;
 2230              		.loc 1 1101 3 is_stmt 1 view .LVU552
1102:Middlewares/Third_Party/FreeRTOS/Source/CMSIS_RTOS/cmsis_os.c ****   TickType_t ticks;
 2231              		.loc 1 1102 3 view .LVU553
1103:Middlewares/Third_Party/FreeRTOS/Source/CMSIS_RTOS/cmsis_os.c ****   osEvent event;
 2232              		.loc 1 1103 3 view .LVU554
1104:Middlewares/Third_Party/FreeRTOS/Source/CMSIS_RTOS/cmsis_os.c ****   
1105:Middlewares/Third_Party/FreeRTOS/Source/CMSIS_RTOS/cmsis_os.c ****   event.def.message_id = queue_id;
 2233              		.loc 1 1105 3 view .LVU555
 2234              		.loc 1 1105 24 is_stmt 0 view .LVU556
ARM GAS  C:\Users\LJH\AppData\Local\Temp\ccdyqIDU.s 			page 68


 2235 0006 0291     		str	r1, [sp, #8]
1106:Middlewares/Third_Party/FreeRTOS/Source/CMSIS_RTOS/cmsis_os.c ****   event.value.v = 0;
 2236              		.loc 1 1106 3 is_stmt 1 view .LVU557
 2237              		.loc 1 1106 17 is_stmt 0 view .LVU558
 2238 0008 0023     		movs	r3, #0
 2239 000a 0193     		str	r3, [sp, #4]
1107:Middlewares/Third_Party/FreeRTOS/Source/CMSIS_RTOS/cmsis_os.c ****   
1108:Middlewares/Third_Party/FreeRTOS/Source/CMSIS_RTOS/cmsis_os.c ****   if (queue_id == NULL) {
 2240              		.loc 1 1108 3 is_stmt 1 view .LVU559
 2241              		.loc 1 1108 6 is_stmt 0 view .LVU560
 2242 000c E1B1     		cbz	r1, .L165
 2243 000e 0D46     		mov	r5, r1
 2244 0010 1646     		mov	r6, r2
1109:Middlewares/Third_Party/FreeRTOS/Source/CMSIS_RTOS/cmsis_os.c ****     event.status = osErrorParameter;
1110:Middlewares/Third_Party/FreeRTOS/Source/CMSIS_RTOS/cmsis_os.c ****     return event;
1111:Middlewares/Third_Party/FreeRTOS/Source/CMSIS_RTOS/cmsis_os.c ****   }
1112:Middlewares/Third_Party/FreeRTOS/Source/CMSIS_RTOS/cmsis_os.c ****   
1113:Middlewares/Third_Party/FreeRTOS/Source/CMSIS_RTOS/cmsis_os.c ****   taskWoken = pdFALSE;
 2245              		.loc 1 1113 3 is_stmt 1 view .LVU561
 2246              		.loc 1 1113 13 is_stmt 0 view .LVU562
 2247 0012 0023     		movs	r3, #0
 2248 0014 0393     		str	r3, [sp, #12]
1114:Middlewares/Third_Party/FreeRTOS/Source/CMSIS_RTOS/cmsis_os.c ****   
1115:Middlewares/Third_Party/FreeRTOS/Source/CMSIS_RTOS/cmsis_os.c ****   ticks = 0;
 2249              		.loc 1 1115 3 is_stmt 1 view .LVU563
 2250              	.LVL179:
1116:Middlewares/Third_Party/FreeRTOS/Source/CMSIS_RTOS/cmsis_os.c ****   if (millisec == osWaitForever) {
 2251              		.loc 1 1116 3 view .LVU564
1117:Middlewares/Third_Party/FreeRTOS/Source/CMSIS_RTOS/cmsis_os.c ****     ticks = portMAX_DELAY;
1118:Middlewares/Third_Party/FreeRTOS/Source/CMSIS_RTOS/cmsis_os.c ****   }
1119:Middlewares/Third_Party/FreeRTOS/Source/CMSIS_RTOS/cmsis_os.c ****   else if (millisec != 0) {
1120:Middlewares/Third_Party/FreeRTOS/Source/CMSIS_RTOS/cmsis_os.c ****     ticks = millisec / portTICK_PERIOD_MS;
1121:Middlewares/Third_Party/FreeRTOS/Source/CMSIS_RTOS/cmsis_os.c ****     if (ticks == 0) {
1122:Middlewares/Third_Party/FreeRTOS/Source/CMSIS_RTOS/cmsis_os.c ****       ticks = 1;
1123:Middlewares/Third_Party/FreeRTOS/Source/CMSIS_RTOS/cmsis_os.c ****     }
1124:Middlewares/Third_Party/FreeRTOS/Source/CMSIS_RTOS/cmsis_os.c ****   }
1125:Middlewares/Third_Party/FreeRTOS/Source/CMSIS_RTOS/cmsis_os.c ****   
1126:Middlewares/Third_Party/FreeRTOS/Source/CMSIS_RTOS/cmsis_os.c ****   if (inHandlerMode()) {
 2252              		.loc 1 1126 3 view .LVU565
 2253              		.loc 1 1126 7 is_stmt 0 view .LVU566
 2254 0016 FFF7FEFF 		bl	inHandlerMode
 2255              	.LVL180:
 2256              		.loc 1 1126 6 view .LVU567
 2257 001a 00B3     		cbz	r0, .L157
1127:Middlewares/Third_Party/FreeRTOS/Source/CMSIS_RTOS/cmsis_os.c ****     if (xQueueReceiveFromISR(queue_id, &event.value.v, &taskWoken) == pdTRUE) {
 2258              		.loc 1 1127 5 is_stmt 1 view .LVU568
 2259              		.loc 1 1127 9 is_stmt 0 view .LVU569
 2260 001c 03AA     		add	r2, sp, #12
 2261 001e 01A9     		add	r1, sp, #4
 2262 0020 2846     		mov	r0, r5
 2263 0022 FFF7FEFF 		bl	xQueueReceiveFromISR
 2264              	.LVL181:
 2265              		.loc 1 1127 8 view .LVU570
 2266 0026 0128     		cmp	r0, #1
 2267 0028 16D0     		beq	.L166
1128:Middlewares/Third_Party/FreeRTOS/Source/CMSIS_RTOS/cmsis_os.c ****       /* We have mail */
1129:Middlewares/Third_Party/FreeRTOS/Source/CMSIS_RTOS/cmsis_os.c ****       event.status = osEventMessage;
ARM GAS  C:\Users\LJH\AppData\Local\Temp\ccdyqIDU.s 			page 69


1130:Middlewares/Third_Party/FreeRTOS/Source/CMSIS_RTOS/cmsis_os.c ****     }
1131:Middlewares/Third_Party/FreeRTOS/Source/CMSIS_RTOS/cmsis_os.c ****     else {
1132:Middlewares/Third_Party/FreeRTOS/Source/CMSIS_RTOS/cmsis_os.c ****       event.status = osOK;
 2268              		.loc 1 1132 7 is_stmt 1 view .LVU571
 2269              		.loc 1 1132 20 is_stmt 0 view .LVU572
 2270 002a 0023     		movs	r3, #0
 2271 002c 0093     		str	r3, [sp]
 2272              	.L159:
1133:Middlewares/Third_Party/FreeRTOS/Source/CMSIS_RTOS/cmsis_os.c ****     }
1134:Middlewares/Third_Party/FreeRTOS/Source/CMSIS_RTOS/cmsis_os.c ****     portEND_SWITCHING_ISR(taskWoken);
 2273              		.loc 1 1134 5 is_stmt 1 view .LVU573
 2274 002e 039B     		ldr	r3, [sp, #12]
 2275 0030 FBB1     		cbz	r3, .L160
 2276              		.loc 1 1134 5 discriminator 1 view .LVU574
 2277 0032 4FF0E023 		mov	r3, #-536813568
 2278 0036 4FF08052 		mov	r2, #268435456
 2279 003a C3F8042D 		str	r2, [r3, #3332]
 2280              		.loc 1 1134 5 discriminator 1 view .LVU575
 2281              		.syntax unified
 2282              	@ 1134 "Middlewares/Third_Party/FreeRTOS/Source/CMSIS_RTOS/cmsis_os.c" 1
 2283 003e BFF34F8F 		dsb
 2284              	@ 0 "" 2
 2285              		.loc 1 1134 5 discriminator 1 view .LVU576
 2286              	@ 1134 "Middlewares/Third_Party/FreeRTOS/Source/CMSIS_RTOS/cmsis_os.c" 1
 2287 0042 BFF36F8F 		isb
 2288              	@ 0 "" 2
 2289              		.thumb
 2290              		.syntax unified
 2291 0046 14E0     		b	.L160
 2292              	.LVL182:
 2293              	.L165:
1109:Middlewares/Third_Party/FreeRTOS/Source/CMSIS_RTOS/cmsis_os.c ****     return event;
 2294              		.loc 1 1109 5 view .LVU577
1109:Middlewares/Third_Party/FreeRTOS/Source/CMSIS_RTOS/cmsis_os.c ****     return event;
 2295              		.loc 1 1109 18 is_stmt 0 view .LVU578
 2296 0048 8023     		movs	r3, #128
 2297 004a 0093     		str	r3, [sp]
1110:Middlewares/Third_Party/FreeRTOS/Source/CMSIS_RTOS/cmsis_os.c ****   }
 2298              		.loc 1 1110 5 is_stmt 1 view .LVU579
1110:Middlewares/Third_Party/FreeRTOS/Source/CMSIS_RTOS/cmsis_os.c ****   }
 2299              		.loc 1 1110 12 is_stmt 0 view .LVU580
 2300 004c 6B46     		mov	r3, sp
 2301 004e 93E80700 		ldm	r3, {r0, r1, r2}
 2302              	.LVL183:
1110:Middlewares/Third_Party/FreeRTOS/Source/CMSIS_RTOS/cmsis_os.c ****   }
 2303              		.loc 1 1110 12 view .LVU581
 2304 0052 84E80700 		stm	r4, {r0, r1, r2}
 2305 0056 11E0     		b	.L154
 2306              	.LVL184:
 2307              	.L166:
1129:Middlewares/Third_Party/FreeRTOS/Source/CMSIS_RTOS/cmsis_os.c ****     }
 2308              		.loc 1 1129 7 is_stmt 1 view .LVU582
1129:Middlewares/Third_Party/FreeRTOS/Source/CMSIS_RTOS/cmsis_os.c ****     }
 2309              		.loc 1 1129 20 is_stmt 0 view .LVU583
 2310 0058 1023     		movs	r3, #16
 2311 005a 0093     		str	r3, [sp]
 2312 005c E7E7     		b	.L159
ARM GAS  C:\Users\LJH\AppData\Local\Temp\ccdyqIDU.s 			page 70


 2313              	.L157:
1135:Middlewares/Third_Party/FreeRTOS/Source/CMSIS_RTOS/cmsis_os.c ****   }
1136:Middlewares/Third_Party/FreeRTOS/Source/CMSIS_RTOS/cmsis_os.c ****   else {
1137:Middlewares/Third_Party/FreeRTOS/Source/CMSIS_RTOS/cmsis_os.c ****     if (xQueueReceive(queue_id, &event.value.v, ticks) == pdTRUE) {
 2314              		.loc 1 1137 5 is_stmt 1 view .LVU584
 2315              		.loc 1 1137 9 is_stmt 0 view .LVU585
 2316 005e 3246     		mov	r2, r6
 2317 0060 01A9     		add	r1, sp, #4
 2318 0062 2846     		mov	r0, r5
 2319 0064 FFF7FEFF 		bl	xQueueReceive
 2320              	.LVL185:
 2321              		.loc 1 1137 8 view .LVU586
 2322 0068 0128     		cmp	r0, #1
 2323 006a 0AD0     		beq	.L167
1138:Middlewares/Third_Party/FreeRTOS/Source/CMSIS_RTOS/cmsis_os.c ****       /* We have mail */
1139:Middlewares/Third_Party/FreeRTOS/Source/CMSIS_RTOS/cmsis_os.c ****       event.status = osEventMessage;
1140:Middlewares/Third_Party/FreeRTOS/Source/CMSIS_RTOS/cmsis_os.c ****     }
1141:Middlewares/Third_Party/FreeRTOS/Source/CMSIS_RTOS/cmsis_os.c ****     else {
1142:Middlewares/Third_Party/FreeRTOS/Source/CMSIS_RTOS/cmsis_os.c ****       event.status = (ticks == 0) ? osOK : osEventTimeout;
 2324              		.loc 1 1142 7 is_stmt 1 view .LVU587
 2325              		.loc 1 1142 42 is_stmt 0 view .LVU588
 2326 006c 06B1     		cbz	r6, .L162
 2327 006e 4026     		movs	r6, #64
 2328              	.LVL186:
 2329              	.L162:
 2330              		.loc 1 1142 20 discriminator 4 view .LVU589
 2331 0070 0096     		str	r6, [sp]
 2332              	.L160:
1143:Middlewares/Third_Party/FreeRTOS/Source/CMSIS_RTOS/cmsis_os.c ****     }
1144:Middlewares/Third_Party/FreeRTOS/Source/CMSIS_RTOS/cmsis_os.c ****   }
1145:Middlewares/Third_Party/FreeRTOS/Source/CMSIS_RTOS/cmsis_os.c ****   
1146:Middlewares/Third_Party/FreeRTOS/Source/CMSIS_RTOS/cmsis_os.c ****   return event;
 2333              		.loc 1 1146 3 is_stmt 1 view .LVU590
 2334              		.loc 1 1146 10 is_stmt 0 view .LVU591
 2335 0072 6B46     		mov	r3, sp
 2336 0074 93E80700 		ldm	r3, {r0, r1, r2}
 2337 0078 84E80700 		stm	r4, {r0, r1, r2}
 2338              	.LVL187:
 2339              	.L154:
1147:Middlewares/Third_Party/FreeRTOS/Source/CMSIS_RTOS/cmsis_os.c **** }
 2340              		.loc 1 1147 1 view .LVU592
 2341 007c 2046     		mov	r0, r4
 2342 007e 04B0     		add	sp, sp, #16
 2343              	.LCFI55:
 2344              		.cfi_remember_state
 2345              		.cfi_def_cfa_offset 16
 2346              		@ sp needed
 2347 0080 70BD     		pop	{r4, r5, r6, pc}
 2348              	.LVL188:
 2349              	.L167:
 2350              	.LCFI56:
 2351              		.cfi_restore_state
1139:Middlewares/Third_Party/FreeRTOS/Source/CMSIS_RTOS/cmsis_os.c ****     }
 2352              		.loc 1 1139 7 is_stmt 1 view .LVU593
1139:Middlewares/Third_Party/FreeRTOS/Source/CMSIS_RTOS/cmsis_os.c ****     }
 2353              		.loc 1 1139 20 is_stmt 0 view .LVU594
 2354 0082 1023     		movs	r3, #16
ARM GAS  C:\Users\LJH\AppData\Local\Temp\ccdyqIDU.s 			page 71


 2355 0084 0093     		str	r3, [sp]
 2356 0086 F4E7     		b	.L160
 2357              		.cfi_endproc
 2358              	.LFE82:
 2360              		.section	.text.osMailCreate,"ax",%progbits
 2361              		.align	1
 2362              		.global	osMailCreate
 2363              		.syntax unified
 2364              		.thumb
 2365              		.thumb_func
 2367              	osMailCreate:
 2368              	.LVL189:
 2369              	.LFB83:
1148:Middlewares/Third_Party/FreeRTOS/Source/CMSIS_RTOS/cmsis_os.c **** 
1149:Middlewares/Third_Party/FreeRTOS/Source/CMSIS_RTOS/cmsis_os.c **** #endif     /* Use Message Queues */
1150:Middlewares/Third_Party/FreeRTOS/Source/CMSIS_RTOS/cmsis_os.c **** 
1151:Middlewares/Third_Party/FreeRTOS/Source/CMSIS_RTOS/cmsis_os.c **** /********************   Mail Queue Management Functions  ***********************/
1152:Middlewares/Third_Party/FreeRTOS/Source/CMSIS_RTOS/cmsis_os.c **** #if (defined (osFeature_MailQ)  &&  (osFeature_MailQ != 0))  /* Use Mail Queues */
1153:Middlewares/Third_Party/FreeRTOS/Source/CMSIS_RTOS/cmsis_os.c **** 
1154:Middlewares/Third_Party/FreeRTOS/Source/CMSIS_RTOS/cmsis_os.c **** 
1155:Middlewares/Third_Party/FreeRTOS/Source/CMSIS_RTOS/cmsis_os.c **** typedef struct os_mailQ_cb {
1156:Middlewares/Third_Party/FreeRTOS/Source/CMSIS_RTOS/cmsis_os.c ****   const osMailQDef_t *queue_def;
1157:Middlewares/Third_Party/FreeRTOS/Source/CMSIS_RTOS/cmsis_os.c ****   QueueHandle_t handle;
1158:Middlewares/Third_Party/FreeRTOS/Source/CMSIS_RTOS/cmsis_os.c ****   osPoolId pool;
1159:Middlewares/Third_Party/FreeRTOS/Source/CMSIS_RTOS/cmsis_os.c **** } os_mailQ_cb_t;
1160:Middlewares/Third_Party/FreeRTOS/Source/CMSIS_RTOS/cmsis_os.c **** 
1161:Middlewares/Third_Party/FreeRTOS/Source/CMSIS_RTOS/cmsis_os.c **** /**
1162:Middlewares/Third_Party/FreeRTOS/Source/CMSIS_RTOS/cmsis_os.c **** * @brief Create and Initialize mail queue
1163:Middlewares/Third_Party/FreeRTOS/Source/CMSIS_RTOS/cmsis_os.c **** * @param  queue_def     reference to the mail queue definition obtain with \ref osMailQ
1164:Middlewares/Third_Party/FreeRTOS/Source/CMSIS_RTOS/cmsis_os.c **** * @param   thread_id     thread ID (obtained by \ref osThreadCreate or \ref osThreadGetId) or NULL.
1165:Middlewares/Third_Party/FreeRTOS/Source/CMSIS_RTOS/cmsis_os.c **** * @retval mail queue ID for reference by other functions or NULL in case of error.
1166:Middlewares/Third_Party/FreeRTOS/Source/CMSIS_RTOS/cmsis_os.c **** * @note   MUST REMAIN UNCHANGED: \b osMailCreate shall be consistent in every CMSIS-RTOS.
1167:Middlewares/Third_Party/FreeRTOS/Source/CMSIS_RTOS/cmsis_os.c **** */
1168:Middlewares/Third_Party/FreeRTOS/Source/CMSIS_RTOS/cmsis_os.c **** osMailQId osMailCreate (const osMailQDef_t *queue_def, osThreadId thread_id)
1169:Middlewares/Third_Party/FreeRTOS/Source/CMSIS_RTOS/cmsis_os.c **** {
 2370              		.loc 1 1169 1 is_stmt 1 view -0
 2371              		.cfi_startproc
 2372              		@ args = 0, pretend = 0, frame = 16
 2373              		@ frame_needed = 0, uses_anonymous_args = 0
 2374              		.loc 1 1169 1 is_stmt 0 view .LVU596
 2375 0000 70B5     		push	{r4, r5, r6, lr}
 2376              	.LCFI57:
 2377              		.cfi_def_cfa_offset 16
 2378              		.cfi_offset 4, -16
 2379              		.cfi_offset 5, -12
 2380              		.cfi_offset 6, -8
 2381              		.cfi_offset 14, -4
 2382 0002 84B0     		sub	sp, sp, #16
 2383              	.LCFI58:
 2384              		.cfi_def_cfa_offset 32
 2385 0004 0446     		mov	r4, r0
1170:Middlewares/Third_Party/FreeRTOS/Source/CMSIS_RTOS/cmsis_os.c **** #if (configSUPPORT_DYNAMIC_ALLOCATION == 1)
1171:Middlewares/Third_Party/FreeRTOS/Source/CMSIS_RTOS/cmsis_os.c ****   (void) thread_id;
 2386              		.loc 1 1171 3 is_stmt 1 view .LVU597
1172:Middlewares/Third_Party/FreeRTOS/Source/CMSIS_RTOS/cmsis_os.c ****   
1173:Middlewares/Third_Party/FreeRTOS/Source/CMSIS_RTOS/cmsis_os.c ****   osPoolDef_t pool_def = {queue_def->queue_sz, queue_def->item_sz, NULL};
 2387              		.loc 1 1173 3 view .LVU598
ARM GAS  C:\Users\LJH\AppData\Local\Temp\ccdyqIDU.s 			page 72


 2388              		.loc 1 1173 36 is_stmt 0 view .LVU599
 2389 0006 0368     		ldr	r3, [r0]
 2390              		.loc 1 1173 15 view .LVU600
 2391 0008 0193     		str	r3, [sp, #4]
 2392              		.loc 1 1173 57 view .LVU601
 2393 000a 4368     		ldr	r3, [r0, #4]
 2394              		.loc 1 1173 15 view .LVU602
 2395 000c 0293     		str	r3, [sp, #8]
 2396 000e 0023     		movs	r3, #0
 2397 0010 0393     		str	r3, [sp, #12]
1174:Middlewares/Third_Party/FreeRTOS/Source/CMSIS_RTOS/cmsis_os.c ****   
1175:Middlewares/Third_Party/FreeRTOS/Source/CMSIS_RTOS/cmsis_os.c ****   /* Create a mail queue control block */
1176:Middlewares/Third_Party/FreeRTOS/Source/CMSIS_RTOS/cmsis_os.c **** 
1177:Middlewares/Third_Party/FreeRTOS/Source/CMSIS_RTOS/cmsis_os.c ****   *(queue_def->cb) = pvPortMalloc(sizeof(struct os_mailQ_cb));
 2398              		.loc 1 1177 3 is_stmt 1 view .LVU603
 2399              		.loc 1 1177 14 is_stmt 0 view .LVU604
 2400 0012 8568     		ldr	r5, [r0, #8]
 2401              		.loc 1 1177 22 view .LVU605
 2402 0014 0C20     		movs	r0, #12
 2403              	.LVL190:
 2404              		.loc 1 1177 22 view .LVU606
 2405 0016 FFF7FEFF 		bl	pvPortMalloc
 2406              	.LVL191:
 2407              		.loc 1 1177 20 view .LVU607
 2408 001a 2860     		str	r0, [r5]
1178:Middlewares/Third_Party/FreeRTOS/Source/CMSIS_RTOS/cmsis_os.c **** 
1179:Middlewares/Third_Party/FreeRTOS/Source/CMSIS_RTOS/cmsis_os.c ****   if (*(queue_def->cb) == NULL) {
 2409              		.loc 1 1179 3 is_stmt 1 view .LVU608
 2410              		.loc 1 1179 18 is_stmt 0 view .LVU609
 2411 001c A368     		ldr	r3, [r4, #8]
 2412              		.loc 1 1179 7 view .LVU610
 2413 001e 1D68     		ldr	r5, [r3]
 2414              		.loc 1 1179 6 view .LVU611
 2415 0020 A5B1     		cbz	r5, .L168
1180:Middlewares/Third_Party/FreeRTOS/Source/CMSIS_RTOS/cmsis_os.c ****     return NULL;
1181:Middlewares/Third_Party/FreeRTOS/Source/CMSIS_RTOS/cmsis_os.c ****   }
1182:Middlewares/Third_Party/FreeRTOS/Source/CMSIS_RTOS/cmsis_os.c ****   (*(queue_def->cb))->queue_def = queue_def;
 2416              		.loc 1 1182 3 is_stmt 1 view .LVU612
 2417              		.loc 1 1182 33 is_stmt 0 view .LVU613
 2418 0022 2C60     		str	r4, [r5]
1183:Middlewares/Third_Party/FreeRTOS/Source/CMSIS_RTOS/cmsis_os.c ****   
1184:Middlewares/Third_Party/FreeRTOS/Source/CMSIS_RTOS/cmsis_os.c ****   /* Create a queue in FreeRTOS */
1185:Middlewares/Third_Party/FreeRTOS/Source/CMSIS_RTOS/cmsis_os.c ****   (*(queue_def->cb))->handle = xQueueCreate(queue_def->queue_sz, sizeof(void *));
 2419              		.loc 1 1185 3 is_stmt 1 view .LVU614
 2420              		.loc 1 1185 15 is_stmt 0 view .LVU615
 2421 0024 A368     		ldr	r3, [r4, #8]
 2422              		.loc 1 1185 4 view .LVU616
 2423 0026 1D68     		ldr	r5, [r3]
 2424              		.loc 1 1185 32 view .LVU617
 2425 0028 0022     		movs	r2, #0
 2426 002a 0421     		movs	r1, #4
 2427 002c 2068     		ldr	r0, [r4]
 2428 002e FFF7FEFF 		bl	xQueueGenericCreate
 2429              	.LVL192:
 2430              		.loc 1 1185 30 view .LVU618
 2431 0032 6860     		str	r0, [r5, #4]
1186:Middlewares/Third_Party/FreeRTOS/Source/CMSIS_RTOS/cmsis_os.c **** 
ARM GAS  C:\Users\LJH\AppData\Local\Temp\ccdyqIDU.s 			page 73


1187:Middlewares/Third_Party/FreeRTOS/Source/CMSIS_RTOS/cmsis_os.c **** 
1188:Middlewares/Third_Party/FreeRTOS/Source/CMSIS_RTOS/cmsis_os.c ****   if ((*(queue_def->cb))->handle == NULL) {
 2432              		.loc 1 1188 3 is_stmt 1 view .LVU619
 2433              		.loc 1 1188 19 is_stmt 0 view .LVU620
 2434 0034 A368     		ldr	r3, [r4, #8]
 2435              		.loc 1 1188 8 view .LVU621
 2436 0036 1E68     		ldr	r6, [r3]
 2437              		.loc 1 1188 25 view .LVU622
 2438 0038 7568     		ldr	r5, [r6, #4]
 2439              		.loc 1 1188 6 view .LVU623
 2440 003a 55B1     		cbz	r5, .L172
1189:Middlewares/Third_Party/FreeRTOS/Source/CMSIS_RTOS/cmsis_os.c ****     vPortFree(*(queue_def->cb));
1190:Middlewares/Third_Party/FreeRTOS/Source/CMSIS_RTOS/cmsis_os.c ****     return NULL;
1191:Middlewares/Third_Party/FreeRTOS/Source/CMSIS_RTOS/cmsis_os.c ****   }
1192:Middlewares/Third_Party/FreeRTOS/Source/CMSIS_RTOS/cmsis_os.c ****   
1193:Middlewares/Third_Party/FreeRTOS/Source/CMSIS_RTOS/cmsis_os.c ****   /* Create a mail pool */
1194:Middlewares/Third_Party/FreeRTOS/Source/CMSIS_RTOS/cmsis_os.c ****   (*(queue_def->cb))->pool = osPoolCreate(&pool_def);
 2441              		.loc 1 1194 3 is_stmt 1 view .LVU624
 2442              		.loc 1 1194 30 is_stmt 0 view .LVU625
 2443 003c 01A8     		add	r0, sp, #4
 2444 003e FFF7FEFF 		bl	osPoolCreate
 2445              	.LVL193:
 2446              		.loc 1 1194 28 view .LVU626
 2447 0042 B060     		str	r0, [r6, #8]
1195:Middlewares/Third_Party/FreeRTOS/Source/CMSIS_RTOS/cmsis_os.c ****   if ((*(queue_def->cb))->pool == NULL) {
 2448              		.loc 1 1195 3 is_stmt 1 view .LVU627
 2449              		.loc 1 1195 19 is_stmt 0 view .LVU628
 2450 0044 A368     		ldr	r3, [r4, #8]
 2451              		.loc 1 1195 8 view .LVU629
 2452 0046 1D68     		ldr	r5, [r3]
 2453              		.loc 1 1195 25 view .LVU630
 2454 0048 AC68     		ldr	r4, [r5, #8]
 2455              	.LVL194:
 2456              		.loc 1 1195 6 view .LVU631
 2457 004a 34B1     		cbz	r4, .L173
 2458              	.L168:
1196:Middlewares/Third_Party/FreeRTOS/Source/CMSIS_RTOS/cmsis_os.c ****     //TODO: Delete queue. How to do it in FreeRTOS?
1197:Middlewares/Third_Party/FreeRTOS/Source/CMSIS_RTOS/cmsis_os.c ****     vPortFree(*(queue_def->cb));
1198:Middlewares/Third_Party/FreeRTOS/Source/CMSIS_RTOS/cmsis_os.c ****     return NULL;
1199:Middlewares/Third_Party/FreeRTOS/Source/CMSIS_RTOS/cmsis_os.c ****   }
1200:Middlewares/Third_Party/FreeRTOS/Source/CMSIS_RTOS/cmsis_os.c ****   
1201:Middlewares/Third_Party/FreeRTOS/Source/CMSIS_RTOS/cmsis_os.c ****   return *(queue_def->cb);
1202:Middlewares/Third_Party/FreeRTOS/Source/CMSIS_RTOS/cmsis_os.c **** #else
1203:Middlewares/Third_Party/FreeRTOS/Source/CMSIS_RTOS/cmsis_os.c ****   return NULL;
1204:Middlewares/Third_Party/FreeRTOS/Source/CMSIS_RTOS/cmsis_os.c **** #endif
1205:Middlewares/Third_Party/FreeRTOS/Source/CMSIS_RTOS/cmsis_os.c **** }
 2459              		.loc 1 1205 1 view .LVU632
 2460 004c 2846     		mov	r0, r5
 2461 004e 04B0     		add	sp, sp, #16
 2462              	.LCFI59:
 2463              		.cfi_remember_state
 2464              		.cfi_def_cfa_offset 16
 2465              		@ sp needed
 2466 0050 70BD     		pop	{r4, r5, r6, pc}
 2467              	.LVL195:
 2468              	.L172:
 2469              	.LCFI60:
ARM GAS  C:\Users\LJH\AppData\Local\Temp\ccdyqIDU.s 			page 74


 2470              		.cfi_restore_state
1189:Middlewares/Third_Party/FreeRTOS/Source/CMSIS_RTOS/cmsis_os.c ****     return NULL;
 2471              		.loc 1 1189 5 is_stmt 1 view .LVU633
 2472 0052 3046     		mov	r0, r6
 2473 0054 FFF7FEFF 		bl	vPortFree
 2474              	.LVL196:
1190:Middlewares/Third_Party/FreeRTOS/Source/CMSIS_RTOS/cmsis_os.c ****   }
 2475              		.loc 1 1190 5 view .LVU634
1190:Middlewares/Third_Party/FreeRTOS/Source/CMSIS_RTOS/cmsis_os.c ****   }
 2476              		.loc 1 1190 12 is_stmt 0 view .LVU635
 2477 0058 F8E7     		b	.L168
 2478              	.LVL197:
 2479              	.L173:
1197:Middlewares/Third_Party/FreeRTOS/Source/CMSIS_RTOS/cmsis_os.c ****     return NULL;
 2480              		.loc 1 1197 5 is_stmt 1 view .LVU636
 2481 005a 2846     		mov	r0, r5
 2482 005c FFF7FEFF 		bl	vPortFree
 2483              	.LVL198:
1198:Middlewares/Third_Party/FreeRTOS/Source/CMSIS_RTOS/cmsis_os.c ****   }
 2484              		.loc 1 1198 5 view .LVU637
1198:Middlewares/Third_Party/FreeRTOS/Source/CMSIS_RTOS/cmsis_os.c ****   }
 2485              		.loc 1 1198 12 is_stmt 0 view .LVU638
 2486 0060 2546     		mov	r5, r4
 2487 0062 F3E7     		b	.L168
 2488              		.cfi_endproc
 2489              	.LFE83:
 2491              		.section	.text.osMailAlloc,"ax",%progbits
 2492              		.align	1
 2493              		.global	osMailAlloc
 2494              		.syntax unified
 2495              		.thumb
 2496              		.thumb_func
 2498              	osMailAlloc:
 2499              	.LVL199:
 2500              	.LFB84:
1206:Middlewares/Third_Party/FreeRTOS/Source/CMSIS_RTOS/cmsis_os.c **** 
1207:Middlewares/Third_Party/FreeRTOS/Source/CMSIS_RTOS/cmsis_os.c **** /**
1208:Middlewares/Third_Party/FreeRTOS/Source/CMSIS_RTOS/cmsis_os.c **** * @brief Allocate a memory block from a mail
1209:Middlewares/Third_Party/FreeRTOS/Source/CMSIS_RTOS/cmsis_os.c **** * @param  queue_id      mail queue ID obtained with \ref osMailCreate.
1210:Middlewares/Third_Party/FreeRTOS/Source/CMSIS_RTOS/cmsis_os.c **** * @param  millisec      timeout value or 0 in case of no time-out.
1211:Middlewares/Third_Party/FreeRTOS/Source/CMSIS_RTOS/cmsis_os.c **** * @retval pointer to memory block that can be filled with mail or NULL in case error.
1212:Middlewares/Third_Party/FreeRTOS/Source/CMSIS_RTOS/cmsis_os.c **** * @note   MUST REMAIN UNCHANGED: \b osMailAlloc shall be consistent in every CMSIS-RTOS.
1213:Middlewares/Third_Party/FreeRTOS/Source/CMSIS_RTOS/cmsis_os.c **** */
1214:Middlewares/Third_Party/FreeRTOS/Source/CMSIS_RTOS/cmsis_os.c **** void *osMailAlloc (osMailQId queue_id, uint32_t millisec)
1215:Middlewares/Third_Party/FreeRTOS/Source/CMSIS_RTOS/cmsis_os.c **** {
 2501              		.loc 1 1215 1 is_stmt 1 view -0
 2502              		.cfi_startproc
 2503              		@ args = 0, pretend = 0, frame = 0
 2504              		@ frame_needed = 0, uses_anonymous_args = 0
 2505              		.loc 1 1215 1 is_stmt 0 view .LVU640
 2506 0000 08B5     		push	{r3, lr}
 2507              	.LCFI61:
 2508              		.cfi_def_cfa_offset 8
 2509              		.cfi_offset 3, -8
 2510              		.cfi_offset 14, -4
1216:Middlewares/Third_Party/FreeRTOS/Source/CMSIS_RTOS/cmsis_os.c ****   (void) millisec;
 2511              		.loc 1 1216 3 is_stmt 1 view .LVU641
ARM GAS  C:\Users\LJH\AppData\Local\Temp\ccdyqIDU.s 			page 75


1217:Middlewares/Third_Party/FreeRTOS/Source/CMSIS_RTOS/cmsis_os.c ****   void *p;
 2512              		.loc 1 1217 3 view .LVU642
1218:Middlewares/Third_Party/FreeRTOS/Source/CMSIS_RTOS/cmsis_os.c ****   
1219:Middlewares/Third_Party/FreeRTOS/Source/CMSIS_RTOS/cmsis_os.c ****   
1220:Middlewares/Third_Party/FreeRTOS/Source/CMSIS_RTOS/cmsis_os.c ****   if (queue_id == NULL) {
 2513              		.loc 1 1220 3 view .LVU643
 2514              		.loc 1 1220 6 is_stmt 0 view .LVU644
 2515 0002 10B1     		cbz	r0, .L174
1221:Middlewares/Third_Party/FreeRTOS/Source/CMSIS_RTOS/cmsis_os.c ****     return NULL;
1222:Middlewares/Third_Party/FreeRTOS/Source/CMSIS_RTOS/cmsis_os.c ****   }
1223:Middlewares/Third_Party/FreeRTOS/Source/CMSIS_RTOS/cmsis_os.c ****   
1224:Middlewares/Third_Party/FreeRTOS/Source/CMSIS_RTOS/cmsis_os.c ****   p = osPoolAlloc(queue_id->pool);
 2516              		.loc 1 1224 3 is_stmt 1 view .LVU645
 2517              		.loc 1 1224 7 is_stmt 0 view .LVU646
 2518 0004 8068     		ldr	r0, [r0, #8]
 2519              	.LVL200:
 2520              		.loc 1 1224 7 view .LVU647
 2521 0006 FFF7FEFF 		bl	osPoolAlloc
 2522              	.LVL201:
1225:Middlewares/Third_Party/FreeRTOS/Source/CMSIS_RTOS/cmsis_os.c ****   
1226:Middlewares/Third_Party/FreeRTOS/Source/CMSIS_RTOS/cmsis_os.c ****   return p;
 2523              		.loc 1 1226 3 is_stmt 1 view .LVU648
 2524              	.L174:
1227:Middlewares/Third_Party/FreeRTOS/Source/CMSIS_RTOS/cmsis_os.c **** }
 2525              		.loc 1 1227 1 is_stmt 0 view .LVU649
 2526 000a 08BD     		pop	{r3, pc}
 2527              		.cfi_endproc
 2528              	.LFE84:
 2530              		.section	.text.osMailCAlloc,"ax",%progbits
 2531              		.align	1
 2532              		.global	osMailCAlloc
 2533              		.syntax unified
 2534              		.thumb
 2535              		.thumb_func
 2537              	osMailCAlloc:
 2538              	.LVL202:
 2539              	.LFB85:
1228:Middlewares/Third_Party/FreeRTOS/Source/CMSIS_RTOS/cmsis_os.c **** 
1229:Middlewares/Third_Party/FreeRTOS/Source/CMSIS_RTOS/cmsis_os.c **** /**
1230:Middlewares/Third_Party/FreeRTOS/Source/CMSIS_RTOS/cmsis_os.c **** * @brief Allocate a memory block from a mail and set memory block to zero
1231:Middlewares/Third_Party/FreeRTOS/Source/CMSIS_RTOS/cmsis_os.c **** * @param  queue_id      mail queue ID obtained with \ref osMailCreate.
1232:Middlewares/Third_Party/FreeRTOS/Source/CMSIS_RTOS/cmsis_os.c **** * @param  millisec      timeout value or 0 in case of no time-out.
1233:Middlewares/Third_Party/FreeRTOS/Source/CMSIS_RTOS/cmsis_os.c **** * @retval pointer to memory block that can be filled with mail or NULL in case error.
1234:Middlewares/Third_Party/FreeRTOS/Source/CMSIS_RTOS/cmsis_os.c **** * @note   MUST REMAIN UNCHANGED: \b osMailCAlloc shall be consistent in every CMSIS-RTOS.
1235:Middlewares/Third_Party/FreeRTOS/Source/CMSIS_RTOS/cmsis_os.c **** */
1236:Middlewares/Third_Party/FreeRTOS/Source/CMSIS_RTOS/cmsis_os.c **** void *osMailCAlloc (osMailQId queue_id, uint32_t millisec)
1237:Middlewares/Third_Party/FreeRTOS/Source/CMSIS_RTOS/cmsis_os.c **** {
 2540              		.loc 1 1237 1 is_stmt 1 view -0
 2541              		.cfi_startproc
 2542              		@ args = 0, pretend = 0, frame = 0
 2543              		@ frame_needed = 0, uses_anonymous_args = 0
 2544              		.loc 1 1237 1 is_stmt 0 view .LVU651
 2545 0000 10B5     		push	{r4, lr}
 2546              	.LCFI62:
 2547              		.cfi_def_cfa_offset 8
 2548              		.cfi_offset 4, -8
 2549              		.cfi_offset 14, -4
ARM GAS  C:\Users\LJH\AppData\Local\Temp\ccdyqIDU.s 			page 76


 2550 0002 0446     		mov	r4, r0
1238:Middlewares/Third_Party/FreeRTOS/Source/CMSIS_RTOS/cmsis_os.c ****   uint32_t i;
 2551              		.loc 1 1238 3 is_stmt 1 view .LVU652
1239:Middlewares/Third_Party/FreeRTOS/Source/CMSIS_RTOS/cmsis_os.c ****   void *p = osMailAlloc(queue_id, millisec);
 2552              		.loc 1 1239 3 view .LVU653
 2553              		.loc 1 1239 13 is_stmt 0 view .LVU654
 2554 0004 FFF7FEFF 		bl	osMailAlloc
 2555              	.LVL203:
1240:Middlewares/Third_Party/FreeRTOS/Source/CMSIS_RTOS/cmsis_os.c ****   
1241:Middlewares/Third_Party/FreeRTOS/Source/CMSIS_RTOS/cmsis_os.c ****   if (p) {
 2556              		.loc 1 1241 3 is_stmt 1 view .LVU655
 2557              		.loc 1 1241 6 is_stmt 0 view .LVU656
 2558 0008 0146     		mov	r1, r0
 2559 000a 40B1     		cbz	r0, .L178
1242:Middlewares/Third_Party/FreeRTOS/Source/CMSIS_RTOS/cmsis_os.c ****     for (i = 0; i < queue_id->queue_def->item_sz; i++) {
 2560              		.loc 1 1242 12 view .LVU657
 2561 000c 0023     		movs	r3, #0
 2562 000e 02E0     		b	.L179
 2563              	.LVL204:
 2564              	.L181:
1243:Middlewares/Third_Party/FreeRTOS/Source/CMSIS_RTOS/cmsis_os.c ****       ((uint8_t *)p)[i] = 0;
 2565              		.loc 1 1243 7 is_stmt 1 discriminator 3 view .LVU658
 2566              		.loc 1 1243 25 is_stmt 0 discriminator 3 view .LVU659
 2567 0010 0022     		movs	r2, #0
 2568 0012 CA54     		strb	r2, [r1, r3]
1242:Middlewares/Third_Party/FreeRTOS/Source/CMSIS_RTOS/cmsis_os.c ****     for (i = 0; i < queue_id->queue_def->item_sz; i++) {
 2569              		.loc 1 1242 51 is_stmt 1 discriminator 3 view .LVU660
1242:Middlewares/Third_Party/FreeRTOS/Source/CMSIS_RTOS/cmsis_os.c ****     for (i = 0; i < queue_id->queue_def->item_sz; i++) {
 2570              		.loc 1 1242 52 is_stmt 0 discriminator 3 view .LVU661
 2571 0014 0133     		adds	r3, r3, #1
 2572              	.LVL205:
 2573              	.L179:
1242:Middlewares/Third_Party/FreeRTOS/Source/CMSIS_RTOS/cmsis_os.c ****     for (i = 0; i < queue_id->queue_def->item_sz; i++) {
 2574              		.loc 1 1242 17 is_stmt 1 discriminator 1 view .LVU662
1242:Middlewares/Third_Party/FreeRTOS/Source/CMSIS_RTOS/cmsis_os.c ****     for (i = 0; i < queue_id->queue_def->item_sz; i++) {
 2575              		.loc 1 1242 29 is_stmt 0 discriminator 1 view .LVU663
 2576 0016 2268     		ldr	r2, [r4]
1242:Middlewares/Third_Party/FreeRTOS/Source/CMSIS_RTOS/cmsis_os.c ****     for (i = 0; i < queue_id->queue_def->item_sz; i++) {
 2577              		.loc 1 1242 40 discriminator 1 view .LVU664
 2578 0018 5268     		ldr	r2, [r2, #4]
1242:Middlewares/Third_Party/FreeRTOS/Source/CMSIS_RTOS/cmsis_os.c ****     for (i = 0; i < queue_id->queue_def->item_sz; i++) {
 2579              		.loc 1 1242 5 discriminator 1 view .LVU665
 2580 001a 9A42     		cmp	r2, r3
 2581 001c F8D8     		bhi	.L181
 2582              	.LVL206:
 2583              	.L178:
1244:Middlewares/Third_Party/FreeRTOS/Source/CMSIS_RTOS/cmsis_os.c ****     }
1245:Middlewares/Third_Party/FreeRTOS/Source/CMSIS_RTOS/cmsis_os.c ****   }
1246:Middlewares/Third_Party/FreeRTOS/Source/CMSIS_RTOS/cmsis_os.c ****   
1247:Middlewares/Third_Party/FreeRTOS/Source/CMSIS_RTOS/cmsis_os.c ****   return p;
1248:Middlewares/Third_Party/FreeRTOS/Source/CMSIS_RTOS/cmsis_os.c **** }
 2584              		.loc 1 1248 1 view .LVU666
 2585 001e 0846     		mov	r0, r1
 2586              	.LVL207:
 2587              		.loc 1 1248 1 view .LVU667
 2588 0020 10BD     		pop	{r4, pc}
 2589              		.loc 1 1248 1 view .LVU668
ARM GAS  C:\Users\LJH\AppData\Local\Temp\ccdyqIDU.s 			page 77


 2590              		.cfi_endproc
 2591              	.LFE85:
 2593              		.section	.text.osMailPut,"ax",%progbits
 2594              		.align	1
 2595              		.global	osMailPut
 2596              		.syntax unified
 2597              		.thumb
 2598              		.thumb_func
 2600              	osMailPut:
 2601              	.LVL208:
 2602              	.LFB86:
1249:Middlewares/Third_Party/FreeRTOS/Source/CMSIS_RTOS/cmsis_os.c **** 
1250:Middlewares/Third_Party/FreeRTOS/Source/CMSIS_RTOS/cmsis_os.c **** /**
1251:Middlewares/Third_Party/FreeRTOS/Source/CMSIS_RTOS/cmsis_os.c **** * @brief Put a mail to a queue
1252:Middlewares/Third_Party/FreeRTOS/Source/CMSIS_RTOS/cmsis_os.c **** * @param  queue_id      mail queue ID obtained with \ref osMailCreate.
1253:Middlewares/Third_Party/FreeRTOS/Source/CMSIS_RTOS/cmsis_os.c **** * @param  mail          memory block previously allocated with \ref osMailAlloc or \ref osMailCAllo
1254:Middlewares/Third_Party/FreeRTOS/Source/CMSIS_RTOS/cmsis_os.c **** * @retval status code that indicates the execution status of the function.
1255:Middlewares/Third_Party/FreeRTOS/Source/CMSIS_RTOS/cmsis_os.c **** * @note   MUST REMAIN UNCHANGED: \b osMailPut shall be consistent in every CMSIS-RTOS.
1256:Middlewares/Third_Party/FreeRTOS/Source/CMSIS_RTOS/cmsis_os.c **** */
1257:Middlewares/Third_Party/FreeRTOS/Source/CMSIS_RTOS/cmsis_os.c **** osStatus osMailPut (osMailQId queue_id, void *mail)
1258:Middlewares/Third_Party/FreeRTOS/Source/CMSIS_RTOS/cmsis_os.c **** {
 2603              		.loc 1 1258 1 is_stmt 1 view -0
 2604              		.cfi_startproc
 2605              		@ args = 0, pretend = 0, frame = 16
 2606              		@ frame_needed = 0, uses_anonymous_args = 0
 2607              		.loc 1 1258 1 is_stmt 0 view .LVU670
 2608 0000 10B5     		push	{r4, lr}
 2609              	.LCFI63:
 2610              		.cfi_def_cfa_offset 8
 2611              		.cfi_offset 4, -8
 2612              		.cfi_offset 14, -4
 2613 0002 84B0     		sub	sp, sp, #16
 2614              	.LCFI64:
 2615              		.cfi_def_cfa_offset 24
 2616 0004 0191     		str	r1, [sp, #4]
1259:Middlewares/Third_Party/FreeRTOS/Source/CMSIS_RTOS/cmsis_os.c ****   portBASE_TYPE taskWoken;
 2617              		.loc 1 1259 3 is_stmt 1 view .LVU671
1260:Middlewares/Third_Party/FreeRTOS/Source/CMSIS_RTOS/cmsis_os.c ****   
1261:Middlewares/Third_Party/FreeRTOS/Source/CMSIS_RTOS/cmsis_os.c ****   
1262:Middlewares/Third_Party/FreeRTOS/Source/CMSIS_RTOS/cmsis_os.c ****   if (queue_id == NULL) {
 2618              		.loc 1 1262 3 view .LVU672
 2619              		.loc 1 1262 6 is_stmt 0 view .LVU673
 2620 0006 30B3     		cbz	r0, .L187
 2621 0008 0446     		mov	r4, r0
1263:Middlewares/Third_Party/FreeRTOS/Source/CMSIS_RTOS/cmsis_os.c ****     return osErrorParameter;
1264:Middlewares/Third_Party/FreeRTOS/Source/CMSIS_RTOS/cmsis_os.c ****   }
1265:Middlewares/Third_Party/FreeRTOS/Source/CMSIS_RTOS/cmsis_os.c ****   
1266:Middlewares/Third_Party/FreeRTOS/Source/CMSIS_RTOS/cmsis_os.c ****   taskWoken = pdFALSE;
 2622              		.loc 1 1266 3 is_stmt 1 view .LVU674
 2623              		.loc 1 1266 13 is_stmt 0 view .LVU675
 2624 000a 0023     		movs	r3, #0
 2625 000c 0393     		str	r3, [sp, #12]
1267:Middlewares/Third_Party/FreeRTOS/Source/CMSIS_RTOS/cmsis_os.c ****   
1268:Middlewares/Third_Party/FreeRTOS/Source/CMSIS_RTOS/cmsis_os.c ****   if (inHandlerMode()) {
 2626              		.loc 1 1268 3 is_stmt 1 view .LVU676
 2627              		.loc 1 1268 7 is_stmt 0 view .LVU677
 2628 000e FFF7FEFF 		bl	inHandlerMode
ARM GAS  C:\Users\LJH\AppData\Local\Temp\ccdyqIDU.s 			page 78


 2629              	.LVL209:
 2630              		.loc 1 1268 6 view .LVU678
 2631 0012 A8B1     		cbz	r0, .L186
1269:Middlewares/Third_Party/FreeRTOS/Source/CMSIS_RTOS/cmsis_os.c ****     if (xQueueSendFromISR(queue_id->handle, &mail, &taskWoken) != pdTRUE) {
 2632              		.loc 1 1269 5 is_stmt 1 view .LVU679
 2633              		.loc 1 1269 9 is_stmt 0 view .LVU680
 2634 0014 0023     		movs	r3, #0
 2635 0016 03AA     		add	r2, sp, #12
 2636 0018 01A9     		add	r1, sp, #4
 2637 001a 6068     		ldr	r0, [r4, #4]
 2638 001c FFF7FEFF 		bl	xQueueGenericSendFromISR
 2639              	.LVL210:
 2640              		.loc 1 1269 8 view .LVU681
 2641 0020 0128     		cmp	r0, #1
 2642 0022 1AD1     		bne	.L188
1270:Middlewares/Third_Party/FreeRTOS/Source/CMSIS_RTOS/cmsis_os.c ****       return osErrorOS;
1271:Middlewares/Third_Party/FreeRTOS/Source/CMSIS_RTOS/cmsis_os.c ****     }
1272:Middlewares/Third_Party/FreeRTOS/Source/CMSIS_RTOS/cmsis_os.c ****     portEND_SWITCHING_ISR(taskWoken);
 2643              		.loc 1 1272 5 is_stmt 1 view .LVU682
 2644 0024 039B     		ldr	r3, [sp, #12]
 2645 0026 D3B1     		cbz	r3, .L189
 2646              		.loc 1 1272 5 discriminator 1 view .LVU683
 2647 0028 4FF0E023 		mov	r3, #-536813568
 2648 002c 4FF08052 		mov	r2, #268435456
 2649 0030 C3F8042D 		str	r2, [r3, #3332]
 2650              		.loc 1 1272 5 discriminator 1 view .LVU684
 2651              		.syntax unified
 2652              	@ 1272 "Middlewares/Third_Party/FreeRTOS/Source/CMSIS_RTOS/cmsis_os.c" 1
 2653 0034 BFF34F8F 		dsb
 2654              	@ 0 "" 2
 2655              		.loc 1 1272 5 discriminator 1 view .LVU685
 2656              	@ 1272 "Middlewares/Third_Party/FreeRTOS/Source/CMSIS_RTOS/cmsis_os.c" 1
 2657 0038 BFF36F8F 		isb
 2658              	@ 0 "" 2
1273:Middlewares/Third_Party/FreeRTOS/Source/CMSIS_RTOS/cmsis_os.c ****   }
1274:Middlewares/Third_Party/FreeRTOS/Source/CMSIS_RTOS/cmsis_os.c ****   else {
1275:Middlewares/Third_Party/FreeRTOS/Source/CMSIS_RTOS/cmsis_os.c ****     if (xQueueSend(queue_id->handle, &mail, 0) != pdTRUE) { 
1276:Middlewares/Third_Party/FreeRTOS/Source/CMSIS_RTOS/cmsis_os.c ****       return osErrorOS;
1277:Middlewares/Third_Party/FreeRTOS/Source/CMSIS_RTOS/cmsis_os.c ****     }
1278:Middlewares/Third_Party/FreeRTOS/Source/CMSIS_RTOS/cmsis_os.c ****   }
1279:Middlewares/Third_Party/FreeRTOS/Source/CMSIS_RTOS/cmsis_os.c ****   
1280:Middlewares/Third_Party/FreeRTOS/Source/CMSIS_RTOS/cmsis_os.c ****   return osOK;
 2659              		.loc 1 1280 10 is_stmt 0 discriminator 1 view .LVU686
 2660              		.thumb
 2661              		.syntax unified
 2662 003c 0020     		movs	r0, #0
 2663 003e 08E0     		b	.L184
 2664              	.L186:
1275:Middlewares/Third_Party/FreeRTOS/Source/CMSIS_RTOS/cmsis_os.c ****       return osErrorOS;
 2665              		.loc 1 1275 5 is_stmt 1 view .LVU687
1275:Middlewares/Third_Party/FreeRTOS/Source/CMSIS_RTOS/cmsis_os.c ****       return osErrorOS;
 2666              		.loc 1 1275 9 is_stmt 0 view .LVU688
 2667 0040 0023     		movs	r3, #0
 2668 0042 1A46     		mov	r2, r3
 2669 0044 01A9     		add	r1, sp, #4
 2670 0046 6068     		ldr	r0, [r4, #4]
 2671 0048 FFF7FEFF 		bl	xQueueGenericSend
ARM GAS  C:\Users\LJH\AppData\Local\Temp\ccdyqIDU.s 			page 79


 2672              	.LVL211:
1275:Middlewares/Third_Party/FreeRTOS/Source/CMSIS_RTOS/cmsis_os.c ****       return osErrorOS;
 2673              		.loc 1 1275 8 view .LVU689
 2674 004c 0128     		cmp	r0, #1
 2675 004e 08D1     		bne	.L190
 2676              		.loc 1 1280 10 view .LVU690
 2677 0050 0020     		movs	r0, #0
 2678              	.LVL212:
 2679              	.L184:
1281:Middlewares/Third_Party/FreeRTOS/Source/CMSIS_RTOS/cmsis_os.c **** }
 2680              		.loc 1 1281 1 view .LVU691
 2681 0052 04B0     		add	sp, sp, #16
 2682              	.LCFI65:
 2683              		.cfi_remember_state
 2684              		.cfi_def_cfa_offset 8
 2685              		@ sp needed
 2686 0054 10BD     		pop	{r4, pc}
 2687              	.LVL213:
 2688              	.L187:
 2689              	.LCFI66:
 2690              		.cfi_restore_state
1263:Middlewares/Third_Party/FreeRTOS/Source/CMSIS_RTOS/cmsis_os.c ****   }
 2691              		.loc 1 1263 12 view .LVU692
 2692 0056 8020     		movs	r0, #128
 2693              	.LVL214:
1263:Middlewares/Third_Party/FreeRTOS/Source/CMSIS_RTOS/cmsis_os.c ****   }
 2694              		.loc 1 1263 12 view .LVU693
 2695 0058 FBE7     		b	.L184
 2696              	.LVL215:
 2697              	.L188:
1270:Middlewares/Third_Party/FreeRTOS/Source/CMSIS_RTOS/cmsis_os.c ****     }
 2698              		.loc 1 1270 14 view .LVU694
 2699 005a FF20     		movs	r0, #255
 2700 005c F9E7     		b	.L184
 2701              	.L189:
1280:Middlewares/Third_Party/FreeRTOS/Source/CMSIS_RTOS/cmsis_os.c **** }
 2702              		.loc 1 1280 10 view .LVU695
 2703 005e 0020     		movs	r0, #0
 2704 0060 F7E7     		b	.L184
 2705              	.L190:
1276:Middlewares/Third_Party/FreeRTOS/Source/CMSIS_RTOS/cmsis_os.c ****     }
 2706              		.loc 1 1276 14 view .LVU696
 2707 0062 FF20     		movs	r0, #255
 2708 0064 F5E7     		b	.L184
 2709              		.cfi_endproc
 2710              	.LFE86:
 2712              		.section	.text.osMailGet,"ax",%progbits
 2713              		.align	1
 2714              		.global	osMailGet
 2715              		.syntax unified
 2716              		.thumb
 2717              		.thumb_func
 2719              	osMailGet:
 2720              	.LVL216:
 2721              	.LFB87:
1282:Middlewares/Third_Party/FreeRTOS/Source/CMSIS_RTOS/cmsis_os.c **** 
1283:Middlewares/Third_Party/FreeRTOS/Source/CMSIS_RTOS/cmsis_os.c **** /**
ARM GAS  C:\Users\LJH\AppData\Local\Temp\ccdyqIDU.s 			page 80


1284:Middlewares/Third_Party/FreeRTOS/Source/CMSIS_RTOS/cmsis_os.c **** * @brief Get a mail from a queue
1285:Middlewares/Third_Party/FreeRTOS/Source/CMSIS_RTOS/cmsis_os.c **** * @param  queue_id   mail queue ID obtained with \ref osMailCreate.
1286:Middlewares/Third_Party/FreeRTOS/Source/CMSIS_RTOS/cmsis_os.c **** * @param millisec    timeout value or 0 in case of no time-out
1287:Middlewares/Third_Party/FreeRTOS/Source/CMSIS_RTOS/cmsis_os.c **** * @retval event that contains mail information or error code.
1288:Middlewares/Third_Party/FreeRTOS/Source/CMSIS_RTOS/cmsis_os.c **** * @note   MUST REMAIN UNCHANGED: \b osMailGet shall be consistent in every CMSIS-RTOS.
1289:Middlewares/Third_Party/FreeRTOS/Source/CMSIS_RTOS/cmsis_os.c **** */
1290:Middlewares/Third_Party/FreeRTOS/Source/CMSIS_RTOS/cmsis_os.c **** osEvent osMailGet (osMailQId queue_id, uint32_t millisec)
1291:Middlewares/Third_Party/FreeRTOS/Source/CMSIS_RTOS/cmsis_os.c **** {
 2722              		.loc 1 1291 1 is_stmt 1 view -0
 2723              		.cfi_startproc
 2724              		@ args = 0, pretend = 0, frame = 16
 2725              		@ frame_needed = 0, uses_anonymous_args = 0
 2726              		.loc 1 1291 1 is_stmt 0 view .LVU698
 2727 0000 70B5     		push	{r4, r5, r6, lr}
 2728              	.LCFI67:
 2729              		.cfi_def_cfa_offset 16
 2730              		.cfi_offset 4, -16
 2731              		.cfi_offset 5, -12
 2732              		.cfi_offset 6, -8
 2733              		.cfi_offset 14, -4
 2734 0002 84B0     		sub	sp, sp, #16
 2735              	.LCFI68:
 2736              		.cfi_def_cfa_offset 32
 2737 0004 0446     		mov	r4, r0
1292:Middlewares/Third_Party/FreeRTOS/Source/CMSIS_RTOS/cmsis_os.c ****   portBASE_TYPE taskWoken;
 2738              		.loc 1 1292 3 is_stmt 1 view .LVU699
1293:Middlewares/Third_Party/FreeRTOS/Source/CMSIS_RTOS/cmsis_os.c ****   TickType_t ticks;
 2739              		.loc 1 1293 3 view .LVU700
1294:Middlewares/Third_Party/FreeRTOS/Source/CMSIS_RTOS/cmsis_os.c ****   osEvent event;
 2740              		.loc 1 1294 3 view .LVU701
1295:Middlewares/Third_Party/FreeRTOS/Source/CMSIS_RTOS/cmsis_os.c ****   
1296:Middlewares/Third_Party/FreeRTOS/Source/CMSIS_RTOS/cmsis_os.c ****   event.def.mail_id = queue_id;
 2741              		.loc 1 1296 3 view .LVU702
 2742              		.loc 1 1296 21 is_stmt 0 view .LVU703
 2743 0006 0291     		str	r1, [sp, #8]
1297:Middlewares/Third_Party/FreeRTOS/Source/CMSIS_RTOS/cmsis_os.c ****   
1298:Middlewares/Third_Party/FreeRTOS/Source/CMSIS_RTOS/cmsis_os.c ****   if (queue_id == NULL) {
 2744              		.loc 1 1298 3 is_stmt 1 view .LVU704
 2745              		.loc 1 1298 6 is_stmt 0 view .LVU705
 2746 0008 E1B1     		cbz	r1, .L203
 2747 000a 0D46     		mov	r5, r1
 2748 000c 1646     		mov	r6, r2
1299:Middlewares/Third_Party/FreeRTOS/Source/CMSIS_RTOS/cmsis_os.c ****     event.status = osErrorParameter;
1300:Middlewares/Third_Party/FreeRTOS/Source/CMSIS_RTOS/cmsis_os.c ****     return event;
1301:Middlewares/Third_Party/FreeRTOS/Source/CMSIS_RTOS/cmsis_os.c ****   }
1302:Middlewares/Third_Party/FreeRTOS/Source/CMSIS_RTOS/cmsis_os.c ****   
1303:Middlewares/Third_Party/FreeRTOS/Source/CMSIS_RTOS/cmsis_os.c ****   taskWoken = pdFALSE;
 2749              		.loc 1 1303 3 is_stmt 1 view .LVU706
 2750              		.loc 1 1303 13 is_stmt 0 view .LVU707
 2751 000e 0023     		movs	r3, #0
 2752 0010 0393     		str	r3, [sp, #12]
1304:Middlewares/Third_Party/FreeRTOS/Source/CMSIS_RTOS/cmsis_os.c ****   
1305:Middlewares/Third_Party/FreeRTOS/Source/CMSIS_RTOS/cmsis_os.c ****   ticks = 0;
 2753              		.loc 1 1305 3 is_stmt 1 view .LVU708
 2754              	.LVL217:
1306:Middlewares/Third_Party/FreeRTOS/Source/CMSIS_RTOS/cmsis_os.c ****   if (millisec == osWaitForever) {
 2755              		.loc 1 1306 3 view .LVU709
ARM GAS  C:\Users\LJH\AppData\Local\Temp\ccdyqIDU.s 			page 81


1307:Middlewares/Third_Party/FreeRTOS/Source/CMSIS_RTOS/cmsis_os.c ****     ticks = portMAX_DELAY;
1308:Middlewares/Third_Party/FreeRTOS/Source/CMSIS_RTOS/cmsis_os.c ****   }
1309:Middlewares/Third_Party/FreeRTOS/Source/CMSIS_RTOS/cmsis_os.c ****   else if (millisec != 0) {
1310:Middlewares/Third_Party/FreeRTOS/Source/CMSIS_RTOS/cmsis_os.c ****     ticks = millisec / portTICK_PERIOD_MS;
1311:Middlewares/Third_Party/FreeRTOS/Source/CMSIS_RTOS/cmsis_os.c ****     if (ticks == 0) {
1312:Middlewares/Third_Party/FreeRTOS/Source/CMSIS_RTOS/cmsis_os.c ****       ticks = 1;
1313:Middlewares/Third_Party/FreeRTOS/Source/CMSIS_RTOS/cmsis_os.c ****     }
1314:Middlewares/Third_Party/FreeRTOS/Source/CMSIS_RTOS/cmsis_os.c ****   }
1315:Middlewares/Third_Party/FreeRTOS/Source/CMSIS_RTOS/cmsis_os.c ****   
1316:Middlewares/Third_Party/FreeRTOS/Source/CMSIS_RTOS/cmsis_os.c ****   if (inHandlerMode()) {
 2756              		.loc 1 1316 3 view .LVU710
 2757              		.loc 1 1316 7 is_stmt 0 view .LVU711
 2758 0012 FFF7FEFF 		bl	inHandlerMode
 2759              	.LVL218:
 2760              		.loc 1 1316 6 view .LVU712
 2761 0016 00B3     		cbz	r0, .L195
1317:Middlewares/Third_Party/FreeRTOS/Source/CMSIS_RTOS/cmsis_os.c ****     if (xQueueReceiveFromISR(queue_id->handle, &event.value.p, &taskWoken) == pdTRUE) {
 2762              		.loc 1 1317 5 is_stmt 1 view .LVU713
 2763              		.loc 1 1317 9 is_stmt 0 view .LVU714
 2764 0018 03AA     		add	r2, sp, #12
 2765 001a 01A9     		add	r1, sp, #4
 2766 001c 6868     		ldr	r0, [r5, #4]
 2767 001e FFF7FEFF 		bl	xQueueReceiveFromISR
 2768              	.LVL219:
 2769              		.loc 1 1317 8 view .LVU715
 2770 0022 0128     		cmp	r0, #1
 2771 0024 16D0     		beq	.L204
1318:Middlewares/Third_Party/FreeRTOS/Source/CMSIS_RTOS/cmsis_os.c ****       /* We have mail */
1319:Middlewares/Third_Party/FreeRTOS/Source/CMSIS_RTOS/cmsis_os.c ****       event.status = osEventMail;
1320:Middlewares/Third_Party/FreeRTOS/Source/CMSIS_RTOS/cmsis_os.c ****     }
1321:Middlewares/Third_Party/FreeRTOS/Source/CMSIS_RTOS/cmsis_os.c ****     else {
1322:Middlewares/Third_Party/FreeRTOS/Source/CMSIS_RTOS/cmsis_os.c ****       event.status = osOK;
 2772              		.loc 1 1322 7 is_stmt 1 view .LVU716
 2773              		.loc 1 1322 20 is_stmt 0 view .LVU717
 2774 0026 0023     		movs	r3, #0
 2775 0028 0093     		str	r3, [sp]
 2776              	.L197:
1323:Middlewares/Third_Party/FreeRTOS/Source/CMSIS_RTOS/cmsis_os.c ****     }
1324:Middlewares/Third_Party/FreeRTOS/Source/CMSIS_RTOS/cmsis_os.c ****     portEND_SWITCHING_ISR(taskWoken);
 2777              		.loc 1 1324 5 is_stmt 1 view .LVU718
 2778 002a 039B     		ldr	r3, [sp, #12]
 2779 002c FBB1     		cbz	r3, .L198
 2780              		.loc 1 1324 5 discriminator 1 view .LVU719
 2781 002e 4FF0E023 		mov	r3, #-536813568
 2782 0032 4FF08052 		mov	r2, #268435456
 2783 0036 C3F8042D 		str	r2, [r3, #3332]
 2784              		.loc 1 1324 5 discriminator 1 view .LVU720
 2785              		.syntax unified
 2786              	@ 1324 "Middlewares/Third_Party/FreeRTOS/Source/CMSIS_RTOS/cmsis_os.c" 1
 2787 003a BFF34F8F 		dsb
 2788              	@ 0 "" 2
 2789              		.loc 1 1324 5 discriminator 1 view .LVU721
 2790              	@ 1324 "Middlewares/Third_Party/FreeRTOS/Source/CMSIS_RTOS/cmsis_os.c" 1
 2791 003e BFF36F8F 		isb
 2792              	@ 0 "" 2
 2793              		.thumb
 2794              		.syntax unified
ARM GAS  C:\Users\LJH\AppData\Local\Temp\ccdyqIDU.s 			page 82


 2795 0042 14E0     		b	.L198
 2796              	.LVL220:
 2797              	.L203:
1299:Middlewares/Third_Party/FreeRTOS/Source/CMSIS_RTOS/cmsis_os.c ****     return event;
 2798              		.loc 1 1299 5 view .LVU722
1299:Middlewares/Third_Party/FreeRTOS/Source/CMSIS_RTOS/cmsis_os.c ****     return event;
 2799              		.loc 1 1299 18 is_stmt 0 view .LVU723
 2800 0044 8023     		movs	r3, #128
 2801 0046 0093     		str	r3, [sp]
1300:Middlewares/Third_Party/FreeRTOS/Source/CMSIS_RTOS/cmsis_os.c ****   }
 2802              		.loc 1 1300 5 is_stmt 1 view .LVU724
1300:Middlewares/Third_Party/FreeRTOS/Source/CMSIS_RTOS/cmsis_os.c ****   }
 2803              		.loc 1 1300 12 is_stmt 0 view .LVU725
 2804 0048 6B46     		mov	r3, sp
 2805 004a 93E80700 		ldm	r3, {r0, r1, r2}
 2806              	.LVL221:
1300:Middlewares/Third_Party/FreeRTOS/Source/CMSIS_RTOS/cmsis_os.c ****   }
 2807              		.loc 1 1300 12 view .LVU726
 2808 004e 84E80700 		stm	r4, {r0, r1, r2}
 2809 0052 11E0     		b	.L192
 2810              	.LVL222:
 2811              	.L204:
1319:Middlewares/Third_Party/FreeRTOS/Source/CMSIS_RTOS/cmsis_os.c ****     }
 2812              		.loc 1 1319 7 is_stmt 1 view .LVU727
1319:Middlewares/Third_Party/FreeRTOS/Source/CMSIS_RTOS/cmsis_os.c ****     }
 2813              		.loc 1 1319 20 is_stmt 0 view .LVU728
 2814 0054 2023     		movs	r3, #32
 2815 0056 0093     		str	r3, [sp]
 2816 0058 E7E7     		b	.L197
 2817              	.L195:
1325:Middlewares/Third_Party/FreeRTOS/Source/CMSIS_RTOS/cmsis_os.c ****   }
1326:Middlewares/Third_Party/FreeRTOS/Source/CMSIS_RTOS/cmsis_os.c ****   else {
1327:Middlewares/Third_Party/FreeRTOS/Source/CMSIS_RTOS/cmsis_os.c ****     if (xQueueReceive(queue_id->handle, &event.value.p, ticks) == pdTRUE) {
 2818              		.loc 1 1327 5 is_stmt 1 view .LVU729
 2819              		.loc 1 1327 9 is_stmt 0 view .LVU730
 2820 005a 3246     		mov	r2, r6
 2821 005c 01A9     		add	r1, sp, #4
 2822 005e 6868     		ldr	r0, [r5, #4]
 2823 0060 FFF7FEFF 		bl	xQueueReceive
 2824              	.LVL223:
 2825              		.loc 1 1327 8 view .LVU731
 2826 0064 0128     		cmp	r0, #1
 2827 0066 0AD0     		beq	.L205
1328:Middlewares/Third_Party/FreeRTOS/Source/CMSIS_RTOS/cmsis_os.c ****       /* We have mail */
1329:Middlewares/Third_Party/FreeRTOS/Source/CMSIS_RTOS/cmsis_os.c ****       event.status = osEventMail;
1330:Middlewares/Third_Party/FreeRTOS/Source/CMSIS_RTOS/cmsis_os.c ****     }
1331:Middlewares/Third_Party/FreeRTOS/Source/CMSIS_RTOS/cmsis_os.c ****     else {
1332:Middlewares/Third_Party/FreeRTOS/Source/CMSIS_RTOS/cmsis_os.c ****       event.status = (ticks == 0) ? osOK : osEventTimeout;
 2828              		.loc 1 1332 7 is_stmt 1 view .LVU732
 2829              		.loc 1 1332 42 is_stmt 0 view .LVU733
 2830 0068 06B1     		cbz	r6, .L200
 2831 006a 4026     		movs	r6, #64
 2832              	.LVL224:
 2833              	.L200:
 2834              		.loc 1 1332 20 discriminator 4 view .LVU734
 2835 006c 0096     		str	r6, [sp]
 2836              	.L198:
ARM GAS  C:\Users\LJH\AppData\Local\Temp\ccdyqIDU.s 			page 83


1333:Middlewares/Third_Party/FreeRTOS/Source/CMSIS_RTOS/cmsis_os.c ****     }
1334:Middlewares/Third_Party/FreeRTOS/Source/CMSIS_RTOS/cmsis_os.c ****   }
1335:Middlewares/Third_Party/FreeRTOS/Source/CMSIS_RTOS/cmsis_os.c ****   
1336:Middlewares/Third_Party/FreeRTOS/Source/CMSIS_RTOS/cmsis_os.c ****   return event;
 2837              		.loc 1 1336 3 is_stmt 1 view .LVU735
 2838              		.loc 1 1336 10 is_stmt 0 view .LVU736
 2839 006e 6B46     		mov	r3, sp
 2840 0070 93E80700 		ldm	r3, {r0, r1, r2}
 2841 0074 84E80700 		stm	r4, {r0, r1, r2}
 2842              	.LVL225:
 2843              	.L192:
1337:Middlewares/Third_Party/FreeRTOS/Source/CMSIS_RTOS/cmsis_os.c **** }
 2844              		.loc 1 1337 1 view .LVU737
 2845 0078 2046     		mov	r0, r4
 2846 007a 04B0     		add	sp, sp, #16
 2847              	.LCFI69:
 2848              		.cfi_remember_state
 2849              		.cfi_def_cfa_offset 16
 2850              		@ sp needed
 2851 007c 70BD     		pop	{r4, r5, r6, pc}
 2852              	.LVL226:
 2853              	.L205:
 2854              	.LCFI70:
 2855              		.cfi_restore_state
1329:Middlewares/Third_Party/FreeRTOS/Source/CMSIS_RTOS/cmsis_os.c ****     }
 2856              		.loc 1 1329 7 is_stmt 1 view .LVU738
1329:Middlewares/Third_Party/FreeRTOS/Source/CMSIS_RTOS/cmsis_os.c ****     }
 2857              		.loc 1 1329 20 is_stmt 0 view .LVU739
 2858 007e 2023     		movs	r3, #32
 2859 0080 0093     		str	r3, [sp]
 2860 0082 F4E7     		b	.L198
 2861              		.cfi_endproc
 2862              	.LFE87:
 2864              		.section	.text.osMailFree,"ax",%progbits
 2865              		.align	1
 2866              		.global	osMailFree
 2867              		.syntax unified
 2868              		.thumb
 2869              		.thumb_func
 2871              	osMailFree:
 2872              	.LVL227:
 2873              	.LFB88:
1338:Middlewares/Third_Party/FreeRTOS/Source/CMSIS_RTOS/cmsis_os.c **** 
1339:Middlewares/Third_Party/FreeRTOS/Source/CMSIS_RTOS/cmsis_os.c **** /**
1340:Middlewares/Third_Party/FreeRTOS/Source/CMSIS_RTOS/cmsis_os.c **** * @brief Free a memory block from a mail
1341:Middlewares/Third_Party/FreeRTOS/Source/CMSIS_RTOS/cmsis_os.c **** * @param  queue_id mail queue ID obtained with \ref osMailCreate.
1342:Middlewares/Third_Party/FreeRTOS/Source/CMSIS_RTOS/cmsis_os.c **** * @param  mail     pointer to the memory block that was obtained with \ref osMailGet.
1343:Middlewares/Third_Party/FreeRTOS/Source/CMSIS_RTOS/cmsis_os.c **** * @retval status code that indicates the execution status of the function.
1344:Middlewares/Third_Party/FreeRTOS/Source/CMSIS_RTOS/cmsis_os.c **** * @note   MUST REMAIN UNCHANGED: \b osMailFree shall be consistent in every CMSIS-RTOS.
1345:Middlewares/Third_Party/FreeRTOS/Source/CMSIS_RTOS/cmsis_os.c **** */
1346:Middlewares/Third_Party/FreeRTOS/Source/CMSIS_RTOS/cmsis_os.c **** osStatus osMailFree (osMailQId queue_id, void *mail)
1347:Middlewares/Third_Party/FreeRTOS/Source/CMSIS_RTOS/cmsis_os.c **** {
 2874              		.loc 1 1347 1 is_stmt 1 view -0
 2875              		.cfi_startproc
 2876              		@ args = 0, pretend = 0, frame = 0
 2877              		@ frame_needed = 0, uses_anonymous_args = 0
1348:Middlewares/Third_Party/FreeRTOS/Source/CMSIS_RTOS/cmsis_os.c ****   if (queue_id == NULL) {
ARM GAS  C:\Users\LJH\AppData\Local\Temp\ccdyqIDU.s 			page 84


 2878              		.loc 1 1348 3 view .LVU741
 2879              		.loc 1 1348 6 is_stmt 0 view .LVU742
 2880 0000 20B1     		cbz	r0, .L208
1347:Middlewares/Third_Party/FreeRTOS/Source/CMSIS_RTOS/cmsis_os.c ****   if (queue_id == NULL) {
 2881              		.loc 1 1347 1 view .LVU743
 2882 0002 08B5     		push	{r3, lr}
 2883              	.LCFI71:
 2884              		.cfi_def_cfa_offset 8
 2885              		.cfi_offset 3, -8
 2886              		.cfi_offset 14, -4
1349:Middlewares/Third_Party/FreeRTOS/Source/CMSIS_RTOS/cmsis_os.c ****     return osErrorParameter;
1350:Middlewares/Third_Party/FreeRTOS/Source/CMSIS_RTOS/cmsis_os.c ****   }
1351:Middlewares/Third_Party/FreeRTOS/Source/CMSIS_RTOS/cmsis_os.c ****   
1352:Middlewares/Third_Party/FreeRTOS/Source/CMSIS_RTOS/cmsis_os.c ****   return osPoolFree(queue_id->pool, mail);
 2887              		.loc 1 1352 3 is_stmt 1 view .LVU744
 2888              		.loc 1 1352 10 is_stmt 0 view .LVU745
 2889 0004 8068     		ldr	r0, [r0, #8]
 2890              	.LVL228:
 2891              		.loc 1 1352 10 view .LVU746
 2892 0006 FFF7FEFF 		bl	osPoolFree
 2893              	.LVL229:
1353:Middlewares/Third_Party/FreeRTOS/Source/CMSIS_RTOS/cmsis_os.c **** }
 2894              		.loc 1 1353 1 view .LVU747
 2895 000a 08BD     		pop	{r3, pc}
 2896              	.LVL230:
 2897              	.L208:
 2898              	.LCFI72:
 2899              		.cfi_def_cfa_offset 0
 2900              		.cfi_restore 3
 2901              		.cfi_restore 14
1349:Middlewares/Third_Party/FreeRTOS/Source/CMSIS_RTOS/cmsis_os.c ****     return osErrorParameter;
 2902              		.loc 1 1349 12 view .LVU748
 2903 000c 8020     		movs	r0, #128
 2904              	.LVL231:
 2905              		.loc 1 1353 1 view .LVU749
 2906 000e 7047     		bx	lr
 2907              		.cfi_endproc
 2908              	.LFE88:
 2910              		.section	.text.osSystickHandler,"ax",%progbits
 2911              		.align	1
 2912              		.global	osSystickHandler
 2913              		.syntax unified
 2914              		.thumb
 2915              		.thumb_func
 2917              	osSystickHandler:
 2918              	.LFB89:
1354:Middlewares/Third_Party/FreeRTOS/Source/CMSIS_RTOS/cmsis_os.c **** #endif  /* Use Mail Queues */
1355:Middlewares/Third_Party/FreeRTOS/Source/CMSIS_RTOS/cmsis_os.c **** 
1356:Middlewares/Third_Party/FreeRTOS/Source/CMSIS_RTOS/cmsis_os.c **** /*************************** Additional specific APIs to Free RTOS ************/
1357:Middlewares/Third_Party/FreeRTOS/Source/CMSIS_RTOS/cmsis_os.c **** /**
1358:Middlewares/Third_Party/FreeRTOS/Source/CMSIS_RTOS/cmsis_os.c **** * @brief  Handles the tick increment
1359:Middlewares/Third_Party/FreeRTOS/Source/CMSIS_RTOS/cmsis_os.c **** * @param  none.
1360:Middlewares/Third_Party/FreeRTOS/Source/CMSIS_RTOS/cmsis_os.c **** * @retval none.
1361:Middlewares/Third_Party/FreeRTOS/Source/CMSIS_RTOS/cmsis_os.c **** */
1362:Middlewares/Third_Party/FreeRTOS/Source/CMSIS_RTOS/cmsis_os.c **** void osSystickHandler(void)
1363:Middlewares/Third_Party/FreeRTOS/Source/CMSIS_RTOS/cmsis_os.c **** {
 2919              		.loc 1 1363 1 is_stmt 1 view -0
ARM GAS  C:\Users\LJH\AppData\Local\Temp\ccdyqIDU.s 			page 85


 2920              		.cfi_startproc
 2921              		@ args = 0, pretend = 0, frame = 0
 2922              		@ frame_needed = 0, uses_anonymous_args = 0
 2923 0000 08B5     		push	{r3, lr}
 2924              	.LCFI73:
 2925              		.cfi_def_cfa_offset 8
 2926              		.cfi_offset 3, -8
 2927              		.cfi_offset 14, -4
1364:Middlewares/Third_Party/FreeRTOS/Source/CMSIS_RTOS/cmsis_os.c **** 
1365:Middlewares/Third_Party/FreeRTOS/Source/CMSIS_RTOS/cmsis_os.c **** #if (INCLUDE_xTaskGetSchedulerState  == 1 )
1366:Middlewares/Third_Party/FreeRTOS/Source/CMSIS_RTOS/cmsis_os.c ****   if (xTaskGetSchedulerState() != taskSCHEDULER_NOT_STARTED)
 2928              		.loc 1 1366 3 view .LVU751
 2929              		.loc 1 1366 7 is_stmt 0 view .LVU752
 2930 0002 FFF7FEFF 		bl	xTaskGetSchedulerState
 2931              	.LVL232:
 2932              		.loc 1 1366 6 view .LVU753
 2933 0006 0128     		cmp	r0, #1
 2934 0008 00D1     		bne	.L216
 2935              	.L213:
1367:Middlewares/Third_Party/FreeRTOS/Source/CMSIS_RTOS/cmsis_os.c ****   {
1368:Middlewares/Third_Party/FreeRTOS/Source/CMSIS_RTOS/cmsis_os.c **** #endif  /* INCLUDE_xTaskGetSchedulerState */  
1369:Middlewares/Third_Party/FreeRTOS/Source/CMSIS_RTOS/cmsis_os.c ****     xPortSysTickHandler();
1370:Middlewares/Third_Party/FreeRTOS/Source/CMSIS_RTOS/cmsis_os.c **** #if (INCLUDE_xTaskGetSchedulerState  == 1 )
1371:Middlewares/Third_Party/FreeRTOS/Source/CMSIS_RTOS/cmsis_os.c ****   }
1372:Middlewares/Third_Party/FreeRTOS/Source/CMSIS_RTOS/cmsis_os.c **** #endif  /* INCLUDE_xTaskGetSchedulerState */  
1373:Middlewares/Third_Party/FreeRTOS/Source/CMSIS_RTOS/cmsis_os.c **** }
 2936              		.loc 1 1373 1 view .LVU754
 2937 000a 08BD     		pop	{r3, pc}
 2938              	.L216:
1369:Middlewares/Third_Party/FreeRTOS/Source/CMSIS_RTOS/cmsis_os.c **** #if (INCLUDE_xTaskGetSchedulerState  == 1 )
 2939              		.loc 1 1369 5 is_stmt 1 view .LVU755
 2940 000c FFF7FEFF 		bl	SysTick_Handler
 2941              	.LVL233:
 2942              		.loc 1 1373 1 is_stmt 0 view .LVU756
 2943 0010 FBE7     		b	.L213
 2944              		.cfi_endproc
 2945              	.LFE89:
 2947              		.section	.text.osThreadSuspend,"ax",%progbits
 2948              		.align	1
 2949              		.global	osThreadSuspend
 2950              		.syntax unified
 2951              		.thumb
 2952              		.thumb_func
 2954              	osThreadSuspend:
 2955              	.LVL234:
 2956              	.LFB90:
1374:Middlewares/Third_Party/FreeRTOS/Source/CMSIS_RTOS/cmsis_os.c **** 
1375:Middlewares/Third_Party/FreeRTOS/Source/CMSIS_RTOS/cmsis_os.c **** #if ( INCLUDE_eTaskGetState == 1 )
1376:Middlewares/Third_Party/FreeRTOS/Source/CMSIS_RTOS/cmsis_os.c **** /**
1377:Middlewares/Third_Party/FreeRTOS/Source/CMSIS_RTOS/cmsis_os.c **** * @brief  Obtain the state of any thread.
1378:Middlewares/Third_Party/FreeRTOS/Source/CMSIS_RTOS/cmsis_os.c **** * @param   thread_id   thread ID obtained by \ref osThreadCreate or \ref osThreadGetId.
1379:Middlewares/Third_Party/FreeRTOS/Source/CMSIS_RTOS/cmsis_os.c **** * @retval  the stae of the thread, states are encoded by the osThreadState enumerated type.
1380:Middlewares/Third_Party/FreeRTOS/Source/CMSIS_RTOS/cmsis_os.c **** */
1381:Middlewares/Third_Party/FreeRTOS/Source/CMSIS_RTOS/cmsis_os.c **** osThreadState osThreadGetState(osThreadId thread_id)
1382:Middlewares/Third_Party/FreeRTOS/Source/CMSIS_RTOS/cmsis_os.c **** {
1383:Middlewares/Third_Party/FreeRTOS/Source/CMSIS_RTOS/cmsis_os.c ****   eTaskState ThreadState;
1384:Middlewares/Third_Party/FreeRTOS/Source/CMSIS_RTOS/cmsis_os.c ****   osThreadState result;
ARM GAS  C:\Users\LJH\AppData\Local\Temp\ccdyqIDU.s 			page 86


1385:Middlewares/Third_Party/FreeRTOS/Source/CMSIS_RTOS/cmsis_os.c ****   
1386:Middlewares/Third_Party/FreeRTOS/Source/CMSIS_RTOS/cmsis_os.c ****   ThreadState = eTaskGetState(thread_id);
1387:Middlewares/Third_Party/FreeRTOS/Source/CMSIS_RTOS/cmsis_os.c ****   
1388:Middlewares/Third_Party/FreeRTOS/Source/CMSIS_RTOS/cmsis_os.c ****   switch (ThreadState)
1389:Middlewares/Third_Party/FreeRTOS/Source/CMSIS_RTOS/cmsis_os.c ****   {
1390:Middlewares/Third_Party/FreeRTOS/Source/CMSIS_RTOS/cmsis_os.c ****   case eRunning :
1391:Middlewares/Third_Party/FreeRTOS/Source/CMSIS_RTOS/cmsis_os.c ****     result = osThreadRunning;
1392:Middlewares/Third_Party/FreeRTOS/Source/CMSIS_RTOS/cmsis_os.c ****     break;
1393:Middlewares/Third_Party/FreeRTOS/Source/CMSIS_RTOS/cmsis_os.c ****   case eReady :
1394:Middlewares/Third_Party/FreeRTOS/Source/CMSIS_RTOS/cmsis_os.c ****     result = osThreadReady;
1395:Middlewares/Third_Party/FreeRTOS/Source/CMSIS_RTOS/cmsis_os.c ****     break;
1396:Middlewares/Third_Party/FreeRTOS/Source/CMSIS_RTOS/cmsis_os.c ****   case eBlocked :
1397:Middlewares/Third_Party/FreeRTOS/Source/CMSIS_RTOS/cmsis_os.c ****     result = osThreadBlocked;
1398:Middlewares/Third_Party/FreeRTOS/Source/CMSIS_RTOS/cmsis_os.c ****     break;
1399:Middlewares/Third_Party/FreeRTOS/Source/CMSIS_RTOS/cmsis_os.c ****   case eSuspended :
1400:Middlewares/Third_Party/FreeRTOS/Source/CMSIS_RTOS/cmsis_os.c ****     result = osThreadSuspended;
1401:Middlewares/Third_Party/FreeRTOS/Source/CMSIS_RTOS/cmsis_os.c ****     break;
1402:Middlewares/Third_Party/FreeRTOS/Source/CMSIS_RTOS/cmsis_os.c ****   case eDeleted :
1403:Middlewares/Third_Party/FreeRTOS/Source/CMSIS_RTOS/cmsis_os.c ****     result = osThreadDeleted;
1404:Middlewares/Third_Party/FreeRTOS/Source/CMSIS_RTOS/cmsis_os.c ****     break;
1405:Middlewares/Third_Party/FreeRTOS/Source/CMSIS_RTOS/cmsis_os.c ****   default:
1406:Middlewares/Third_Party/FreeRTOS/Source/CMSIS_RTOS/cmsis_os.c ****     result = osThreadError;
1407:Middlewares/Third_Party/FreeRTOS/Source/CMSIS_RTOS/cmsis_os.c ****   } 
1408:Middlewares/Third_Party/FreeRTOS/Source/CMSIS_RTOS/cmsis_os.c ****   
1409:Middlewares/Third_Party/FreeRTOS/Source/CMSIS_RTOS/cmsis_os.c ****   return result;
1410:Middlewares/Third_Party/FreeRTOS/Source/CMSIS_RTOS/cmsis_os.c **** }
1411:Middlewares/Third_Party/FreeRTOS/Source/CMSIS_RTOS/cmsis_os.c **** #endif /* INCLUDE_eTaskGetState */
1412:Middlewares/Third_Party/FreeRTOS/Source/CMSIS_RTOS/cmsis_os.c **** 
1413:Middlewares/Third_Party/FreeRTOS/Source/CMSIS_RTOS/cmsis_os.c **** #if (INCLUDE_eTaskGetState == 1)
1414:Middlewares/Third_Party/FreeRTOS/Source/CMSIS_RTOS/cmsis_os.c **** /**
1415:Middlewares/Third_Party/FreeRTOS/Source/CMSIS_RTOS/cmsis_os.c **** * @brief Check if a thread is already suspended or not.
1416:Middlewares/Third_Party/FreeRTOS/Source/CMSIS_RTOS/cmsis_os.c **** * @param thread_id thread ID obtained by \ref osThreadCreate or \ref osThreadGetId.
1417:Middlewares/Third_Party/FreeRTOS/Source/CMSIS_RTOS/cmsis_os.c **** * @retval status code that indicates the execution status of the function.
1418:Middlewares/Third_Party/FreeRTOS/Source/CMSIS_RTOS/cmsis_os.c **** */
1419:Middlewares/Third_Party/FreeRTOS/Source/CMSIS_RTOS/cmsis_os.c **** osStatus osThreadIsSuspended(osThreadId thread_id)
1420:Middlewares/Third_Party/FreeRTOS/Source/CMSIS_RTOS/cmsis_os.c **** {
1421:Middlewares/Third_Party/FreeRTOS/Source/CMSIS_RTOS/cmsis_os.c ****   if (eTaskGetState(thread_id) == eSuspended)
1422:Middlewares/Third_Party/FreeRTOS/Source/CMSIS_RTOS/cmsis_os.c ****     return osOK;
1423:Middlewares/Third_Party/FreeRTOS/Source/CMSIS_RTOS/cmsis_os.c ****   else
1424:Middlewares/Third_Party/FreeRTOS/Source/CMSIS_RTOS/cmsis_os.c ****     return osErrorOS;
1425:Middlewares/Third_Party/FreeRTOS/Source/CMSIS_RTOS/cmsis_os.c **** }
1426:Middlewares/Third_Party/FreeRTOS/Source/CMSIS_RTOS/cmsis_os.c **** #endif /* INCLUDE_eTaskGetState */
1427:Middlewares/Third_Party/FreeRTOS/Source/CMSIS_RTOS/cmsis_os.c **** /**
1428:Middlewares/Third_Party/FreeRTOS/Source/CMSIS_RTOS/cmsis_os.c **** * @brief  Suspend execution of a thread.
1429:Middlewares/Third_Party/FreeRTOS/Source/CMSIS_RTOS/cmsis_os.c **** * @param   thread_id   thread ID obtained by \ref osThreadCreate or \ref osThreadGetId.
1430:Middlewares/Third_Party/FreeRTOS/Source/CMSIS_RTOS/cmsis_os.c **** * @retval  status code that indicates the execution status of the function.
1431:Middlewares/Third_Party/FreeRTOS/Source/CMSIS_RTOS/cmsis_os.c **** */
1432:Middlewares/Third_Party/FreeRTOS/Source/CMSIS_RTOS/cmsis_os.c **** osStatus osThreadSuspend (osThreadId thread_id)
1433:Middlewares/Third_Party/FreeRTOS/Source/CMSIS_RTOS/cmsis_os.c **** {
 2957              		.loc 1 1433 1 is_stmt 1 view -0
 2958              		.cfi_startproc
 2959              		@ args = 0, pretend = 0, frame = 0
 2960              		@ frame_needed = 0, uses_anonymous_args = 0
 2961              		.loc 1 1433 1 is_stmt 0 view .LVU758
 2962 0000 08B5     		push	{r3, lr}
 2963              	.LCFI74:
 2964              		.cfi_def_cfa_offset 8
ARM GAS  C:\Users\LJH\AppData\Local\Temp\ccdyqIDU.s 			page 87


 2965              		.cfi_offset 3, -8
 2966              		.cfi_offset 14, -4
1434:Middlewares/Third_Party/FreeRTOS/Source/CMSIS_RTOS/cmsis_os.c **** #if (INCLUDE_vTaskSuspend == 1)
1435:Middlewares/Third_Party/FreeRTOS/Source/CMSIS_RTOS/cmsis_os.c ****     vTaskSuspend(thread_id);
 2967              		.loc 1 1435 5 is_stmt 1 view .LVU759
 2968 0002 FFF7FEFF 		bl	vTaskSuspend
 2969              	.LVL235:
1436:Middlewares/Third_Party/FreeRTOS/Source/CMSIS_RTOS/cmsis_os.c ****   
1437:Middlewares/Third_Party/FreeRTOS/Source/CMSIS_RTOS/cmsis_os.c ****   return osOK;
 2970              		.loc 1 1437 3 view .LVU760
1438:Middlewares/Third_Party/FreeRTOS/Source/CMSIS_RTOS/cmsis_os.c **** #else
1439:Middlewares/Third_Party/FreeRTOS/Source/CMSIS_RTOS/cmsis_os.c ****   return osErrorResource;
1440:Middlewares/Third_Party/FreeRTOS/Source/CMSIS_RTOS/cmsis_os.c **** #endif
1441:Middlewares/Third_Party/FreeRTOS/Source/CMSIS_RTOS/cmsis_os.c **** }
 2971              		.loc 1 1441 1 is_stmt 0 view .LVU761
 2972 0006 0020     		movs	r0, #0
 2973 0008 08BD     		pop	{r3, pc}
 2974              		.cfi_endproc
 2975              	.LFE90:
 2977              		.section	.text.osThreadResume,"ax",%progbits
 2978              		.align	1
 2979              		.global	osThreadResume
 2980              		.syntax unified
 2981              		.thumb
 2982              		.thumb_func
 2984              	osThreadResume:
 2985              	.LVL236:
 2986              	.LFB91:
1442:Middlewares/Third_Party/FreeRTOS/Source/CMSIS_RTOS/cmsis_os.c **** 
1443:Middlewares/Third_Party/FreeRTOS/Source/CMSIS_RTOS/cmsis_os.c **** /**
1444:Middlewares/Third_Party/FreeRTOS/Source/CMSIS_RTOS/cmsis_os.c **** * @brief  Resume execution of a suspended thread.
1445:Middlewares/Third_Party/FreeRTOS/Source/CMSIS_RTOS/cmsis_os.c **** * @param   thread_id   thread ID obtained by \ref osThreadCreate or \ref osThreadGetId.
1446:Middlewares/Third_Party/FreeRTOS/Source/CMSIS_RTOS/cmsis_os.c **** * @retval  status code that indicates the execution status of the function.
1447:Middlewares/Third_Party/FreeRTOS/Source/CMSIS_RTOS/cmsis_os.c **** */
1448:Middlewares/Third_Party/FreeRTOS/Source/CMSIS_RTOS/cmsis_os.c **** osStatus osThreadResume (osThreadId thread_id)
1449:Middlewares/Third_Party/FreeRTOS/Source/CMSIS_RTOS/cmsis_os.c **** {
 2987              		.loc 1 1449 1 is_stmt 1 view -0
 2988              		.cfi_startproc
 2989              		@ args = 0, pretend = 0, frame = 0
 2990              		@ frame_needed = 0, uses_anonymous_args = 0
 2991              		.loc 1 1449 1 is_stmt 0 view .LVU763
 2992 0000 10B5     		push	{r4, lr}
 2993              	.LCFI75:
 2994              		.cfi_def_cfa_offset 8
 2995              		.cfi_offset 4, -8
 2996              		.cfi_offset 14, -4
 2997 0002 0446     		mov	r4, r0
1450:Middlewares/Third_Party/FreeRTOS/Source/CMSIS_RTOS/cmsis_os.c **** #if (INCLUDE_vTaskSuspend == 1)  
1451:Middlewares/Third_Party/FreeRTOS/Source/CMSIS_RTOS/cmsis_os.c ****   if(inHandlerMode())
 2998              		.loc 1 1451 3 is_stmt 1 view .LVU764
 2999              		.loc 1 1451 6 is_stmt 0 view .LVU765
 3000 0004 FFF7FEFF 		bl	inHandlerMode
 3001              	.LVL237:
 3002              		.loc 1 1451 5 view .LVU766
 3003 0008 78B1     		cbz	r0, .L220
1452:Middlewares/Third_Party/FreeRTOS/Source/CMSIS_RTOS/cmsis_os.c ****   {
1453:Middlewares/Third_Party/FreeRTOS/Source/CMSIS_RTOS/cmsis_os.c ****     if (xTaskResumeFromISR(thread_id) == pdTRUE)
ARM GAS  C:\Users\LJH\AppData\Local\Temp\ccdyqIDU.s 			page 88


 3004              		.loc 1 1453 5 is_stmt 1 view .LVU767
 3005              		.loc 1 1453 9 is_stmt 0 view .LVU768
 3006 000a 2046     		mov	r0, r4
 3007 000c FFF7FEFF 		bl	xTaskResumeFromISR
 3008              	.LVL238:
 3009              		.loc 1 1453 8 view .LVU769
 3010 0010 0128     		cmp	r0, #1
 3011 0012 0DD1     		bne	.L221
1454:Middlewares/Third_Party/FreeRTOS/Source/CMSIS_RTOS/cmsis_os.c ****     {
1455:Middlewares/Third_Party/FreeRTOS/Source/CMSIS_RTOS/cmsis_os.c ****       portYIELD_FROM_ISR(pdTRUE);
 3012              		.loc 1 1455 7 is_stmt 1 discriminator 1 view .LVU770
 3013              		.loc 1 1455 7 discriminator 1 view .LVU771
 3014 0014 4FF0E023 		mov	r3, #-536813568
 3015 0018 4FF08052 		mov	r2, #268435456
 3016 001c C3F8042D 		str	r2, [r3, #3332]
 3017              		.loc 1 1455 7 discriminator 1 view .LVU772
 3018              		.syntax unified
 3019              	@ 1455 "Middlewares/Third_Party/FreeRTOS/Source/CMSIS_RTOS/cmsis_os.c" 1
 3020 0020 BFF34F8F 		dsb
 3021              	@ 0 "" 2
 3022              		.loc 1 1455 7 discriminator 1 view .LVU773
 3023              	@ 1455 "Middlewares/Third_Party/FreeRTOS/Source/CMSIS_RTOS/cmsis_os.c" 1
 3024 0024 BFF36F8F 		isb
 3025              	@ 0 "" 2
 3026              		.thumb
 3027              		.syntax unified
 3028 0028 02E0     		b	.L221
 3029              	.L220:
1456:Middlewares/Third_Party/FreeRTOS/Source/CMSIS_RTOS/cmsis_os.c ****     }
1457:Middlewares/Third_Party/FreeRTOS/Source/CMSIS_RTOS/cmsis_os.c ****   }
1458:Middlewares/Third_Party/FreeRTOS/Source/CMSIS_RTOS/cmsis_os.c ****   else
1459:Middlewares/Third_Party/FreeRTOS/Source/CMSIS_RTOS/cmsis_os.c ****   {
1460:Middlewares/Third_Party/FreeRTOS/Source/CMSIS_RTOS/cmsis_os.c ****     vTaskResume(thread_id);
 3030              		.loc 1 1460 5 view .LVU774
 3031 002a 2046     		mov	r0, r4
 3032 002c FFF7FEFF 		bl	vTaskResume
 3033              	.LVL239:
 3034              	.L221:
1461:Middlewares/Third_Party/FreeRTOS/Source/CMSIS_RTOS/cmsis_os.c ****   }
1462:Middlewares/Third_Party/FreeRTOS/Source/CMSIS_RTOS/cmsis_os.c ****   return osOK;
 3035              		.loc 1 1462 3 view .LVU775
1463:Middlewares/Third_Party/FreeRTOS/Source/CMSIS_RTOS/cmsis_os.c **** #else
1464:Middlewares/Third_Party/FreeRTOS/Source/CMSIS_RTOS/cmsis_os.c ****   return osErrorResource;
1465:Middlewares/Third_Party/FreeRTOS/Source/CMSIS_RTOS/cmsis_os.c **** #endif
1466:Middlewares/Third_Party/FreeRTOS/Source/CMSIS_RTOS/cmsis_os.c **** }
 3036              		.loc 1 1466 1 is_stmt 0 view .LVU776
 3037 0030 0020     		movs	r0, #0
 3038 0032 10BD     		pop	{r4, pc}
 3039              		.loc 1 1466 1 view .LVU777
 3040              		.cfi_endproc
 3041              	.LFE91:
 3043              		.section	.text.osThreadSuspendAll,"ax",%progbits
 3044              		.align	1
 3045              		.global	osThreadSuspendAll
 3046              		.syntax unified
 3047              		.thumb
 3048              		.thumb_func
ARM GAS  C:\Users\LJH\AppData\Local\Temp\ccdyqIDU.s 			page 89


 3050              	osThreadSuspendAll:
 3051              	.LFB92:
1467:Middlewares/Third_Party/FreeRTOS/Source/CMSIS_RTOS/cmsis_os.c **** 
1468:Middlewares/Third_Party/FreeRTOS/Source/CMSIS_RTOS/cmsis_os.c **** /**
1469:Middlewares/Third_Party/FreeRTOS/Source/CMSIS_RTOS/cmsis_os.c **** * @brief  Suspend execution of a all active threads.
1470:Middlewares/Third_Party/FreeRTOS/Source/CMSIS_RTOS/cmsis_os.c **** * @retval  status code that indicates the execution status of the function.
1471:Middlewares/Third_Party/FreeRTOS/Source/CMSIS_RTOS/cmsis_os.c **** */
1472:Middlewares/Third_Party/FreeRTOS/Source/CMSIS_RTOS/cmsis_os.c **** osStatus osThreadSuspendAll (void)
1473:Middlewares/Third_Party/FreeRTOS/Source/CMSIS_RTOS/cmsis_os.c **** {
 3052              		.loc 1 1473 1 is_stmt 1 view -0
 3053              		.cfi_startproc
 3054              		@ args = 0, pretend = 0, frame = 0
 3055              		@ frame_needed = 0, uses_anonymous_args = 0
 3056 0000 08B5     		push	{r3, lr}
 3057              	.LCFI76:
 3058              		.cfi_def_cfa_offset 8
 3059              		.cfi_offset 3, -8
 3060              		.cfi_offset 14, -4
1474:Middlewares/Third_Party/FreeRTOS/Source/CMSIS_RTOS/cmsis_os.c ****   vTaskSuspendAll();
 3061              		.loc 1 1474 3 view .LVU779
 3062 0002 FFF7FEFF 		bl	vTaskSuspendAll
 3063              	.LVL240:
1475:Middlewares/Third_Party/FreeRTOS/Source/CMSIS_RTOS/cmsis_os.c ****   
1476:Middlewares/Third_Party/FreeRTOS/Source/CMSIS_RTOS/cmsis_os.c ****   return osOK;
 3064              		.loc 1 1476 3 view .LVU780
1477:Middlewares/Third_Party/FreeRTOS/Source/CMSIS_RTOS/cmsis_os.c **** }
 3065              		.loc 1 1477 1 is_stmt 0 view .LVU781
 3066 0006 0020     		movs	r0, #0
 3067 0008 08BD     		pop	{r3, pc}
 3068              		.cfi_endproc
 3069              	.LFE92:
 3071              		.section	.text.osThreadResumeAll,"ax",%progbits
 3072              		.align	1
 3073              		.global	osThreadResumeAll
 3074              		.syntax unified
 3075              		.thumb
 3076              		.thumb_func
 3078              	osThreadResumeAll:
 3079              	.LFB93:
1478:Middlewares/Third_Party/FreeRTOS/Source/CMSIS_RTOS/cmsis_os.c **** 
1479:Middlewares/Third_Party/FreeRTOS/Source/CMSIS_RTOS/cmsis_os.c **** /**
1480:Middlewares/Third_Party/FreeRTOS/Source/CMSIS_RTOS/cmsis_os.c **** * @brief  Resume execution of a all suspended threads.
1481:Middlewares/Third_Party/FreeRTOS/Source/CMSIS_RTOS/cmsis_os.c **** * @retval  status code that indicates the execution status of the function.
1482:Middlewares/Third_Party/FreeRTOS/Source/CMSIS_RTOS/cmsis_os.c **** */
1483:Middlewares/Third_Party/FreeRTOS/Source/CMSIS_RTOS/cmsis_os.c **** osStatus osThreadResumeAll (void)
1484:Middlewares/Third_Party/FreeRTOS/Source/CMSIS_RTOS/cmsis_os.c **** {
 3080              		.loc 1 1484 1 is_stmt 1 view -0
 3081              		.cfi_startproc
 3082              		@ args = 0, pretend = 0, frame = 0
 3083              		@ frame_needed = 0, uses_anonymous_args = 0
 3084 0000 08B5     		push	{r3, lr}
 3085              	.LCFI77:
 3086              		.cfi_def_cfa_offset 8
 3087              		.cfi_offset 3, -8
 3088              		.cfi_offset 14, -4
1485:Middlewares/Third_Party/FreeRTOS/Source/CMSIS_RTOS/cmsis_os.c ****   if (xTaskResumeAll() == pdTRUE)
 3089              		.loc 1 1485 3 view .LVU783
ARM GAS  C:\Users\LJH\AppData\Local\Temp\ccdyqIDU.s 			page 90


 3090              		.loc 1 1485 7 is_stmt 0 view .LVU784
 3091 0002 FFF7FEFF 		bl	xTaskResumeAll
 3092              	.LVL241:
 3093              		.loc 1 1485 6 view .LVU785
 3094 0006 0128     		cmp	r0, #1
 3095 0008 01D0     		beq	.L229
1486:Middlewares/Third_Party/FreeRTOS/Source/CMSIS_RTOS/cmsis_os.c ****     return osOK;
1487:Middlewares/Third_Party/FreeRTOS/Source/CMSIS_RTOS/cmsis_os.c ****   else
1488:Middlewares/Third_Party/FreeRTOS/Source/CMSIS_RTOS/cmsis_os.c ****     return osErrorOS;
 3096              		.loc 1 1488 12 view .LVU786
 3097 000a FF20     		movs	r0, #255
 3098              	.L225:
1489:Middlewares/Third_Party/FreeRTOS/Source/CMSIS_RTOS/cmsis_os.c ****   
1490:Middlewares/Third_Party/FreeRTOS/Source/CMSIS_RTOS/cmsis_os.c **** }
 3099              		.loc 1 1490 1 view .LVU787
 3100 000c 08BD     		pop	{r3, pc}
 3101              	.L229:
1486:Middlewares/Third_Party/FreeRTOS/Source/CMSIS_RTOS/cmsis_os.c ****     return osOK;
 3102              		.loc 1 1486 12 view .LVU788
 3103 000e 0020     		movs	r0, #0
 3104 0010 FCE7     		b	.L225
 3105              		.cfi_endproc
 3106              	.LFE93:
 3108              		.section	.text.osDelayUntil,"ax",%progbits
 3109              		.align	1
 3110              		.global	osDelayUntil
 3111              		.syntax unified
 3112              		.thumb
 3113              		.thumb_func
 3115              	osDelayUntil:
 3116              	.LVL242:
 3117              	.LFB94:
1491:Middlewares/Third_Party/FreeRTOS/Source/CMSIS_RTOS/cmsis_os.c **** 
1492:Middlewares/Third_Party/FreeRTOS/Source/CMSIS_RTOS/cmsis_os.c **** /**
1493:Middlewares/Third_Party/FreeRTOS/Source/CMSIS_RTOS/cmsis_os.c **** * @brief  Delay a task until a specified time
1494:Middlewares/Third_Party/FreeRTOS/Source/CMSIS_RTOS/cmsis_os.c **** * @param   PreviousWakeTime   Pointer to a variable that holds the time at which the 
1495:Middlewares/Third_Party/FreeRTOS/Source/CMSIS_RTOS/cmsis_os.c **** *          task was last unblocked. PreviousWakeTime must be initialised with the current time
1496:Middlewares/Third_Party/FreeRTOS/Source/CMSIS_RTOS/cmsis_os.c **** *          prior to its first use (PreviousWakeTime = osKernelSysTick() )
1497:Middlewares/Third_Party/FreeRTOS/Source/CMSIS_RTOS/cmsis_os.c **** * @param   millisec    time delay value
1498:Middlewares/Third_Party/FreeRTOS/Source/CMSIS_RTOS/cmsis_os.c **** * @retval  status code that indicates the execution status of the function.
1499:Middlewares/Third_Party/FreeRTOS/Source/CMSIS_RTOS/cmsis_os.c **** */
1500:Middlewares/Third_Party/FreeRTOS/Source/CMSIS_RTOS/cmsis_os.c **** osStatus osDelayUntil (uint32_t *PreviousWakeTime, uint32_t millisec)
1501:Middlewares/Third_Party/FreeRTOS/Source/CMSIS_RTOS/cmsis_os.c **** {
 3118              		.loc 1 1501 1 is_stmt 1 view -0
 3119              		.cfi_startproc
 3120              		@ args = 0, pretend = 0, frame = 0
 3121              		@ frame_needed = 0, uses_anonymous_args = 0
 3122              		@ link register save eliminated.
1502:Middlewares/Third_Party/FreeRTOS/Source/CMSIS_RTOS/cmsis_os.c **** #if INCLUDE_vTaskDelayUntil
1503:Middlewares/Third_Party/FreeRTOS/Source/CMSIS_RTOS/cmsis_os.c ****   TickType_t ticks = (millisec / portTICK_PERIOD_MS);
1504:Middlewares/Third_Party/FreeRTOS/Source/CMSIS_RTOS/cmsis_os.c ****   vTaskDelayUntil((TickType_t *) PreviousWakeTime, ticks ? ticks : 1);
1505:Middlewares/Third_Party/FreeRTOS/Source/CMSIS_RTOS/cmsis_os.c ****   
1506:Middlewares/Third_Party/FreeRTOS/Source/CMSIS_RTOS/cmsis_os.c ****   return osOK;
1507:Middlewares/Third_Party/FreeRTOS/Source/CMSIS_RTOS/cmsis_os.c **** #else
1508:Middlewares/Third_Party/FreeRTOS/Source/CMSIS_RTOS/cmsis_os.c ****   (void) millisec;
 3123              		.loc 1 1508 3 view .LVU790
1509:Middlewares/Third_Party/FreeRTOS/Source/CMSIS_RTOS/cmsis_os.c ****   (void) PreviousWakeTime;
ARM GAS  C:\Users\LJH\AppData\Local\Temp\ccdyqIDU.s 			page 91


 3124              		.loc 1 1509 3 view .LVU791
1510:Middlewares/Third_Party/FreeRTOS/Source/CMSIS_RTOS/cmsis_os.c ****   
1511:Middlewares/Third_Party/FreeRTOS/Source/CMSIS_RTOS/cmsis_os.c ****   return osErrorResource;
 3125              		.loc 1 1511 3 view .LVU792
1512:Middlewares/Third_Party/FreeRTOS/Source/CMSIS_RTOS/cmsis_os.c **** #endif
1513:Middlewares/Third_Party/FreeRTOS/Source/CMSIS_RTOS/cmsis_os.c **** }
 3126              		.loc 1 1513 1 is_stmt 0 view .LVU793
 3127 0000 8120     		movs	r0, #129
 3128              	.LVL243:
 3129              		.loc 1 1513 1 view .LVU794
 3130 0002 7047     		bx	lr
 3131              		.cfi_endproc
 3132              	.LFE94:
 3134              		.section	.text.osAbortDelay,"ax",%progbits
 3135              		.align	1
 3136              		.global	osAbortDelay
 3137              		.syntax unified
 3138              		.thumb
 3139              		.thumb_func
 3141              	osAbortDelay:
 3142              	.LVL244:
 3143              	.LFB95:
1514:Middlewares/Third_Party/FreeRTOS/Source/CMSIS_RTOS/cmsis_os.c **** 
1515:Middlewares/Third_Party/FreeRTOS/Source/CMSIS_RTOS/cmsis_os.c **** /**
1516:Middlewares/Third_Party/FreeRTOS/Source/CMSIS_RTOS/cmsis_os.c **** * @brief   Abort the delay for a specific thread
1517:Middlewares/Third_Party/FreeRTOS/Source/CMSIS_RTOS/cmsis_os.c **** * @param   thread_id   thread ID obtained by \ref osThreadCreate or \ref osThreadGetId   
1518:Middlewares/Third_Party/FreeRTOS/Source/CMSIS_RTOS/cmsis_os.c **** * @retval  status code that indicates the execution status of the function.
1519:Middlewares/Third_Party/FreeRTOS/Source/CMSIS_RTOS/cmsis_os.c **** */
1520:Middlewares/Third_Party/FreeRTOS/Source/CMSIS_RTOS/cmsis_os.c **** osStatus osAbortDelay(osThreadId thread_id)
1521:Middlewares/Third_Party/FreeRTOS/Source/CMSIS_RTOS/cmsis_os.c **** {
 3144              		.loc 1 1521 1 is_stmt 1 view -0
 3145              		.cfi_startproc
 3146              		@ args = 0, pretend = 0, frame = 0
 3147              		@ frame_needed = 0, uses_anonymous_args = 0
 3148              		@ link register save eliminated.
1522:Middlewares/Third_Party/FreeRTOS/Source/CMSIS_RTOS/cmsis_os.c **** #if INCLUDE_xTaskAbortDelay
1523:Middlewares/Third_Party/FreeRTOS/Source/CMSIS_RTOS/cmsis_os.c ****   
1524:Middlewares/Third_Party/FreeRTOS/Source/CMSIS_RTOS/cmsis_os.c ****   xTaskAbortDelay(thread_id);
1525:Middlewares/Third_Party/FreeRTOS/Source/CMSIS_RTOS/cmsis_os.c ****   
1526:Middlewares/Third_Party/FreeRTOS/Source/CMSIS_RTOS/cmsis_os.c ****   return osOK;
1527:Middlewares/Third_Party/FreeRTOS/Source/CMSIS_RTOS/cmsis_os.c **** #else
1528:Middlewares/Third_Party/FreeRTOS/Source/CMSIS_RTOS/cmsis_os.c ****   (void) thread_id;
 3149              		.loc 1 1528 3 view .LVU796
1529:Middlewares/Third_Party/FreeRTOS/Source/CMSIS_RTOS/cmsis_os.c ****   
1530:Middlewares/Third_Party/FreeRTOS/Source/CMSIS_RTOS/cmsis_os.c ****   return osErrorResource;
 3150              		.loc 1 1530 3 view .LVU797
1531:Middlewares/Third_Party/FreeRTOS/Source/CMSIS_RTOS/cmsis_os.c **** #endif
1532:Middlewares/Third_Party/FreeRTOS/Source/CMSIS_RTOS/cmsis_os.c **** }
 3151              		.loc 1 1532 1 is_stmt 0 view .LVU798
 3152 0000 8120     		movs	r0, #129
 3153              	.LVL245:
 3154              		.loc 1 1532 1 view .LVU799
 3155 0002 7047     		bx	lr
 3156              		.cfi_endproc
 3157              	.LFE95:
 3159              		.section	.text.osThreadList,"ax",%progbits
 3160              		.align	1
ARM GAS  C:\Users\LJH\AppData\Local\Temp\ccdyqIDU.s 			page 92


 3161              		.global	osThreadList
 3162              		.syntax unified
 3163              		.thumb
 3164              		.thumb_func
 3166              	osThreadList:
 3167              	.LVL246:
 3168              	.LFB96:
1533:Middlewares/Third_Party/FreeRTOS/Source/CMSIS_RTOS/cmsis_os.c **** 
1534:Middlewares/Third_Party/FreeRTOS/Source/CMSIS_RTOS/cmsis_os.c **** /**
1535:Middlewares/Third_Party/FreeRTOS/Source/CMSIS_RTOS/cmsis_os.c **** * @brief   Lists all the current threads, along with their current state 
1536:Middlewares/Third_Party/FreeRTOS/Source/CMSIS_RTOS/cmsis_os.c **** *          and stack usage high water mark.
1537:Middlewares/Third_Party/FreeRTOS/Source/CMSIS_RTOS/cmsis_os.c **** * @param   buffer   A buffer into which the above mentioned details
1538:Middlewares/Third_Party/FreeRTOS/Source/CMSIS_RTOS/cmsis_os.c **** *          will be written
1539:Middlewares/Third_Party/FreeRTOS/Source/CMSIS_RTOS/cmsis_os.c **** * @retval  status code that indicates the execution status of the function.
1540:Middlewares/Third_Party/FreeRTOS/Source/CMSIS_RTOS/cmsis_os.c **** */
1541:Middlewares/Third_Party/FreeRTOS/Source/CMSIS_RTOS/cmsis_os.c **** osStatus osThreadList (uint8_t *buffer)
1542:Middlewares/Third_Party/FreeRTOS/Source/CMSIS_RTOS/cmsis_os.c **** {
 3169              		.loc 1 1542 1 is_stmt 1 view -0
 3170              		.cfi_startproc
 3171              		@ args = 0, pretend = 0, frame = 0
 3172              		@ frame_needed = 0, uses_anonymous_args = 0
 3173              		@ link register save eliminated.
1543:Middlewares/Third_Party/FreeRTOS/Source/CMSIS_RTOS/cmsis_os.c **** #if ( ( configUSE_TRACE_FACILITY == 1 ) && ( configUSE_STATS_FORMATTING_FUNCTIONS == 1 ) )
1544:Middlewares/Third_Party/FreeRTOS/Source/CMSIS_RTOS/cmsis_os.c ****   vTaskList((char *)buffer);
1545:Middlewares/Third_Party/FreeRTOS/Source/CMSIS_RTOS/cmsis_os.c **** #endif
1546:Middlewares/Third_Party/FreeRTOS/Source/CMSIS_RTOS/cmsis_os.c ****   return osOK;
 3174              		.loc 1 1546 3 view .LVU801
1547:Middlewares/Third_Party/FreeRTOS/Source/CMSIS_RTOS/cmsis_os.c **** }
 3175              		.loc 1 1547 1 is_stmt 0 view .LVU802
 3176 0000 0020     		movs	r0, #0
 3177              	.LVL247:
 3178              		.loc 1 1547 1 view .LVU803
 3179 0002 7047     		bx	lr
 3180              		.cfi_endproc
 3181              	.LFE96:
 3183              		.section	.text.osMessagePeek,"ax",%progbits
 3184              		.align	1
 3185              		.global	osMessagePeek
 3186              		.syntax unified
 3187              		.thumb
 3188              		.thumb_func
 3190              	osMessagePeek:
 3191              	.LVL248:
 3192              	.LFB97:
1548:Middlewares/Third_Party/FreeRTOS/Source/CMSIS_RTOS/cmsis_os.c **** 
1549:Middlewares/Third_Party/FreeRTOS/Source/CMSIS_RTOS/cmsis_os.c **** /**
1550:Middlewares/Third_Party/FreeRTOS/Source/CMSIS_RTOS/cmsis_os.c **** * @brief  Receive an item from a queue without removing the item from the queue.
1551:Middlewares/Third_Party/FreeRTOS/Source/CMSIS_RTOS/cmsis_os.c **** * @param  queue_id  message queue ID obtained with \ref osMessageCreate.
1552:Middlewares/Third_Party/FreeRTOS/Source/CMSIS_RTOS/cmsis_os.c **** * @param  millisec  timeout value or 0 in case of no time-out.
1553:Middlewares/Third_Party/FreeRTOS/Source/CMSIS_RTOS/cmsis_os.c **** * @retval event information that includes status code.
1554:Middlewares/Third_Party/FreeRTOS/Source/CMSIS_RTOS/cmsis_os.c **** */
1555:Middlewares/Third_Party/FreeRTOS/Source/CMSIS_RTOS/cmsis_os.c **** osEvent osMessagePeek (osMessageQId queue_id, uint32_t millisec)
1556:Middlewares/Third_Party/FreeRTOS/Source/CMSIS_RTOS/cmsis_os.c **** {
 3193              		.loc 1 1556 1 is_stmt 1 view -0
 3194              		.cfi_startproc
 3195              		@ args = 0, pretend = 0, frame = 16
 3196              		@ frame_needed = 0, uses_anonymous_args = 0
ARM GAS  C:\Users\LJH\AppData\Local\Temp\ccdyqIDU.s 			page 93


 3197              		.loc 1 1556 1 is_stmt 0 view .LVU805
 3198 0000 30B5     		push	{r4, r5, lr}
 3199              	.LCFI78:
 3200              		.cfi_def_cfa_offset 12
 3201              		.cfi_offset 4, -12
 3202              		.cfi_offset 5, -8
 3203              		.cfi_offset 14, -4
 3204 0002 85B0     		sub	sp, sp, #20
 3205              	.LCFI79:
 3206              		.cfi_def_cfa_offset 32
 3207 0004 0446     		mov	r4, r0
1557:Middlewares/Third_Party/FreeRTOS/Source/CMSIS_RTOS/cmsis_os.c ****   TickType_t ticks;
 3208              		.loc 1 1557 3 is_stmt 1 view .LVU806
1558:Middlewares/Third_Party/FreeRTOS/Source/CMSIS_RTOS/cmsis_os.c ****   osEvent event;
 3209              		.loc 1 1558 3 view .LVU807
1559:Middlewares/Third_Party/FreeRTOS/Source/CMSIS_RTOS/cmsis_os.c ****   
1560:Middlewares/Third_Party/FreeRTOS/Source/CMSIS_RTOS/cmsis_os.c ****   event.def.message_id = queue_id;
 3210              		.loc 1 1560 3 view .LVU808
 3211              		.loc 1 1560 24 is_stmt 0 view .LVU809
 3212 0006 0391     		str	r1, [sp, #12]
1561:Middlewares/Third_Party/FreeRTOS/Source/CMSIS_RTOS/cmsis_os.c ****   
1562:Middlewares/Third_Party/FreeRTOS/Source/CMSIS_RTOS/cmsis_os.c ****   if (queue_id == NULL) {
 3213              		.loc 1 1562 3 is_stmt 1 view .LVU810
 3214              		.loc 1 1562 6 is_stmt 0 view .LVU811
 3215 0008 89B1     		cbz	r1, .L241
 3216 000a 0846     		mov	r0, r1
 3217              	.LVL249:
 3218              		.loc 1 1562 6 view .LVU812
 3219 000c 1546     		mov	r5, r2
1563:Middlewares/Third_Party/FreeRTOS/Source/CMSIS_RTOS/cmsis_os.c ****     event.status = osErrorParameter;
1564:Middlewares/Third_Party/FreeRTOS/Source/CMSIS_RTOS/cmsis_os.c ****     return event;
1565:Middlewares/Third_Party/FreeRTOS/Source/CMSIS_RTOS/cmsis_os.c ****   }
1566:Middlewares/Third_Party/FreeRTOS/Source/CMSIS_RTOS/cmsis_os.c ****   
1567:Middlewares/Third_Party/FreeRTOS/Source/CMSIS_RTOS/cmsis_os.c ****   ticks = 0;
 3220              		.loc 1 1567 3 is_stmt 1 view .LVU813
 3221              	.LVL250:
1568:Middlewares/Third_Party/FreeRTOS/Source/CMSIS_RTOS/cmsis_os.c ****   if (millisec == osWaitForever) {
 3222              		.loc 1 1568 3 view .LVU814
1569:Middlewares/Third_Party/FreeRTOS/Source/CMSIS_RTOS/cmsis_os.c ****     ticks = portMAX_DELAY;
1570:Middlewares/Third_Party/FreeRTOS/Source/CMSIS_RTOS/cmsis_os.c ****   }
1571:Middlewares/Third_Party/FreeRTOS/Source/CMSIS_RTOS/cmsis_os.c ****   else if (millisec != 0) {
1572:Middlewares/Third_Party/FreeRTOS/Source/CMSIS_RTOS/cmsis_os.c ****     ticks = millisec / portTICK_PERIOD_MS;
1573:Middlewares/Third_Party/FreeRTOS/Source/CMSIS_RTOS/cmsis_os.c ****     if (ticks == 0) {
1574:Middlewares/Third_Party/FreeRTOS/Source/CMSIS_RTOS/cmsis_os.c ****       ticks = 1;
1575:Middlewares/Third_Party/FreeRTOS/Source/CMSIS_RTOS/cmsis_os.c ****     }
1576:Middlewares/Third_Party/FreeRTOS/Source/CMSIS_RTOS/cmsis_os.c ****   }
1577:Middlewares/Third_Party/FreeRTOS/Source/CMSIS_RTOS/cmsis_os.c ****   
1578:Middlewares/Third_Party/FreeRTOS/Source/CMSIS_RTOS/cmsis_os.c ****   if (xQueuePeek(queue_id, &event.value.v, ticks) == pdTRUE) 
 3223              		.loc 1 1578 3 view .LVU815
 3224              		.loc 1 1578 7 is_stmt 0 view .LVU816
 3225 000e 02A9     		add	r1, sp, #8
 3226              	.LVL251:
 3227              		.loc 1 1578 7 view .LVU817
 3228 0010 FFF7FEFF 		bl	xQueuePeek
 3229              	.LVL252:
 3230              		.loc 1 1578 6 view .LVU818
 3231 0014 0128     		cmp	r0, #1
ARM GAS  C:\Users\LJH\AppData\Local\Temp\ccdyqIDU.s 			page 94


 3232 0016 12D0     		beq	.L242
1579:Middlewares/Third_Party/FreeRTOS/Source/CMSIS_RTOS/cmsis_os.c ****   {
1580:Middlewares/Third_Party/FreeRTOS/Source/CMSIS_RTOS/cmsis_os.c ****     /* We have mail */
1581:Middlewares/Third_Party/FreeRTOS/Source/CMSIS_RTOS/cmsis_os.c ****     event.status = osEventMessage;
1582:Middlewares/Third_Party/FreeRTOS/Source/CMSIS_RTOS/cmsis_os.c ****   }
1583:Middlewares/Third_Party/FreeRTOS/Source/CMSIS_RTOS/cmsis_os.c ****   else 
1584:Middlewares/Third_Party/FreeRTOS/Source/CMSIS_RTOS/cmsis_os.c ****   {
1585:Middlewares/Third_Party/FreeRTOS/Source/CMSIS_RTOS/cmsis_os.c ****     event.status = (ticks == 0) ? osOK : osEventTimeout;
 3233              		.loc 1 1585 5 is_stmt 1 view .LVU819
 3234              		.loc 1 1585 40 is_stmt 0 view .LVU820
 3235 0018 05B1     		cbz	r5, .L238
 3236 001a 4025     		movs	r5, #64
 3237              	.LVL253:
 3238              	.L238:
 3239              		.loc 1 1585 18 discriminator 4 view .LVU821
 3240 001c 0195     		str	r5, [sp, #4]
 3241              	.L237:
1586:Middlewares/Third_Party/FreeRTOS/Source/CMSIS_RTOS/cmsis_os.c ****   }
1587:Middlewares/Third_Party/FreeRTOS/Source/CMSIS_RTOS/cmsis_os.c ****   
1588:Middlewares/Third_Party/FreeRTOS/Source/CMSIS_RTOS/cmsis_os.c ****   return event;
 3242              		.loc 1 1588 3 is_stmt 1 view .LVU822
 3243              		.loc 1 1588 10 is_stmt 0 view .LVU823
 3244 001e 04AB     		add	r3, sp, #16
 3245 0020 13E90700 		ldmdb	r3, {r0, r1, r2}
 3246 0024 84E80700 		stm	r4, {r0, r1, r2}
 3247              	.LVL254:
 3248              	.L233:
1589:Middlewares/Third_Party/FreeRTOS/Source/CMSIS_RTOS/cmsis_os.c **** }
 3249              		.loc 1 1589 1 view .LVU824
 3250 0028 2046     		mov	r0, r4
 3251 002a 05B0     		add	sp, sp, #20
 3252              	.LCFI80:
 3253              		.cfi_remember_state
 3254              		.cfi_def_cfa_offset 12
 3255              		@ sp needed
 3256 002c 30BD     		pop	{r4, r5, pc}
 3257              	.LVL255:
 3258              	.L241:
 3259              	.LCFI81:
 3260              		.cfi_restore_state
1563:Middlewares/Third_Party/FreeRTOS/Source/CMSIS_RTOS/cmsis_os.c ****     return event;
 3261              		.loc 1 1563 5 is_stmt 1 view .LVU825
1563:Middlewares/Third_Party/FreeRTOS/Source/CMSIS_RTOS/cmsis_os.c ****     return event;
 3262              		.loc 1 1563 18 is_stmt 0 view .LVU826
 3263 002e 8023     		movs	r3, #128
 3264 0030 0193     		str	r3, [sp, #4]
1564:Middlewares/Third_Party/FreeRTOS/Source/CMSIS_RTOS/cmsis_os.c ****   }
 3265              		.loc 1 1564 5 is_stmt 1 view .LVU827
1564:Middlewares/Third_Party/FreeRTOS/Source/CMSIS_RTOS/cmsis_os.c ****   }
 3266              		.loc 1 1564 12 is_stmt 0 view .LVU828
 3267 0032 04AB     		add	r3, sp, #16
 3268 0034 13E90700 		ldmdb	r3, {r0, r1, r2}
 3269              	.LVL256:
1564:Middlewares/Third_Party/FreeRTOS/Source/CMSIS_RTOS/cmsis_os.c ****   }
 3270              		.loc 1 1564 12 view .LVU829
 3271 0038 84E80700 		stm	r4, {r0, r1, r2}
 3272 003c F4E7     		b	.L233
ARM GAS  C:\Users\LJH\AppData\Local\Temp\ccdyqIDU.s 			page 95


 3273              	.LVL257:
 3274              	.L242:
1581:Middlewares/Third_Party/FreeRTOS/Source/CMSIS_RTOS/cmsis_os.c ****   }
 3275              		.loc 1 1581 5 is_stmt 1 view .LVU830
1581:Middlewares/Third_Party/FreeRTOS/Source/CMSIS_RTOS/cmsis_os.c ****   }
 3276              		.loc 1 1581 18 is_stmt 0 view .LVU831
 3277 003e 1023     		movs	r3, #16
 3278 0040 0193     		str	r3, [sp, #4]
 3279 0042 ECE7     		b	.L237
 3280              		.cfi_endproc
 3281              	.LFE97:
 3283              		.section	.text.osMessageWaiting,"ax",%progbits
 3284              		.align	1
 3285              		.global	osMessageWaiting
 3286              		.syntax unified
 3287              		.thumb
 3288              		.thumb_func
 3290              	osMessageWaiting:
 3291              	.LVL258:
 3292              	.LFB98:
1590:Middlewares/Third_Party/FreeRTOS/Source/CMSIS_RTOS/cmsis_os.c **** 
1591:Middlewares/Third_Party/FreeRTOS/Source/CMSIS_RTOS/cmsis_os.c **** /**
1592:Middlewares/Third_Party/FreeRTOS/Source/CMSIS_RTOS/cmsis_os.c **** * @brief  Get the number of messaged stored in a queue.
1593:Middlewares/Third_Party/FreeRTOS/Source/CMSIS_RTOS/cmsis_os.c **** * @param  queue_id  message queue ID obtained with \ref osMessageCreate.
1594:Middlewares/Third_Party/FreeRTOS/Source/CMSIS_RTOS/cmsis_os.c **** * @retval number of messages stored in a queue.
1595:Middlewares/Third_Party/FreeRTOS/Source/CMSIS_RTOS/cmsis_os.c **** */
1596:Middlewares/Third_Party/FreeRTOS/Source/CMSIS_RTOS/cmsis_os.c **** uint32_t osMessageWaiting(osMessageQId queue_id)
1597:Middlewares/Third_Party/FreeRTOS/Source/CMSIS_RTOS/cmsis_os.c **** {
 3293              		.loc 1 1597 1 is_stmt 1 view -0
 3294              		.cfi_startproc
 3295              		@ args = 0, pretend = 0, frame = 0
 3296              		@ frame_needed = 0, uses_anonymous_args = 0
 3297              		.loc 1 1597 1 is_stmt 0 view .LVU833
 3298 0000 10B5     		push	{r4, lr}
 3299              	.LCFI82:
 3300              		.cfi_def_cfa_offset 8
 3301              		.cfi_offset 4, -8
 3302              		.cfi_offset 14, -4
 3303 0002 0446     		mov	r4, r0
1598:Middlewares/Third_Party/FreeRTOS/Source/CMSIS_RTOS/cmsis_os.c ****   if (inHandlerMode()) {
 3304              		.loc 1 1598 3 is_stmt 1 view .LVU834
 3305              		.loc 1 1598 7 is_stmt 0 view .LVU835
 3306 0004 FFF7FEFF 		bl	inHandlerMode
 3307              	.LVL259:
 3308              		.loc 1 1598 6 view .LVU836
 3309 0008 18B1     		cbz	r0, .L244
1599:Middlewares/Third_Party/FreeRTOS/Source/CMSIS_RTOS/cmsis_os.c ****     return uxQueueMessagesWaitingFromISR(queue_id);
 3310              		.loc 1 1599 5 is_stmt 1 view .LVU837
 3311              		.loc 1 1599 12 is_stmt 0 view .LVU838
 3312 000a 2046     		mov	r0, r4
 3313 000c FFF7FEFF 		bl	uxQueueMessagesWaitingFromISR
 3314              	.LVL260:
 3315              	.L243:
1600:Middlewares/Third_Party/FreeRTOS/Source/CMSIS_RTOS/cmsis_os.c ****   }
1601:Middlewares/Third_Party/FreeRTOS/Source/CMSIS_RTOS/cmsis_os.c ****   else
1602:Middlewares/Third_Party/FreeRTOS/Source/CMSIS_RTOS/cmsis_os.c ****   {
1603:Middlewares/Third_Party/FreeRTOS/Source/CMSIS_RTOS/cmsis_os.c ****     return uxQueueMessagesWaiting(queue_id);
ARM GAS  C:\Users\LJH\AppData\Local\Temp\ccdyqIDU.s 			page 96


1604:Middlewares/Third_Party/FreeRTOS/Source/CMSIS_RTOS/cmsis_os.c ****   }
1605:Middlewares/Third_Party/FreeRTOS/Source/CMSIS_RTOS/cmsis_os.c **** }
 3316              		.loc 1 1605 1 view .LVU839
 3317 0010 10BD     		pop	{r4, pc}
 3318              	.LVL261:
 3319              	.L244:
1603:Middlewares/Third_Party/FreeRTOS/Source/CMSIS_RTOS/cmsis_os.c ****   }
 3320              		.loc 1 1603 5 is_stmt 1 view .LVU840
1603:Middlewares/Third_Party/FreeRTOS/Source/CMSIS_RTOS/cmsis_os.c ****   }
 3321              		.loc 1 1603 12 is_stmt 0 view .LVU841
 3322 0012 2046     		mov	r0, r4
 3323 0014 FFF7FEFF 		bl	uxQueueMessagesWaiting
 3324              	.LVL262:
 3325 0018 FAE7     		b	.L243
 3326              		.cfi_endproc
 3327              	.LFE98:
 3329              		.section	.text.osMessageAvailableSpace,"ax",%progbits
 3330              		.align	1
 3331              		.global	osMessageAvailableSpace
 3332              		.syntax unified
 3333              		.thumb
 3334              		.thumb_func
 3336              	osMessageAvailableSpace:
 3337              	.LVL263:
 3338              	.LFB99:
1606:Middlewares/Third_Party/FreeRTOS/Source/CMSIS_RTOS/cmsis_os.c **** 
1607:Middlewares/Third_Party/FreeRTOS/Source/CMSIS_RTOS/cmsis_os.c **** /**
1608:Middlewares/Third_Party/FreeRTOS/Source/CMSIS_RTOS/cmsis_os.c **** * @brief  Get the available space in a message queue.
1609:Middlewares/Third_Party/FreeRTOS/Source/CMSIS_RTOS/cmsis_os.c **** * @param  queue_id  message queue ID obtained with \ref osMessageCreate.
1610:Middlewares/Third_Party/FreeRTOS/Source/CMSIS_RTOS/cmsis_os.c **** * @retval available space in a message queue.
1611:Middlewares/Third_Party/FreeRTOS/Source/CMSIS_RTOS/cmsis_os.c **** */
1612:Middlewares/Third_Party/FreeRTOS/Source/CMSIS_RTOS/cmsis_os.c **** uint32_t osMessageAvailableSpace(osMessageQId queue_id)  
1613:Middlewares/Third_Party/FreeRTOS/Source/CMSIS_RTOS/cmsis_os.c **** {
 3339              		.loc 1 1613 1 is_stmt 1 view -0
 3340              		.cfi_startproc
 3341              		@ args = 0, pretend = 0, frame = 0
 3342              		@ frame_needed = 0, uses_anonymous_args = 0
 3343              		.loc 1 1613 1 is_stmt 0 view .LVU843
 3344 0000 08B5     		push	{r3, lr}
 3345              	.LCFI83:
 3346              		.cfi_def_cfa_offset 8
 3347              		.cfi_offset 3, -8
 3348              		.cfi_offset 14, -4
1614:Middlewares/Third_Party/FreeRTOS/Source/CMSIS_RTOS/cmsis_os.c ****   return uxQueueSpacesAvailable(queue_id);
 3349              		.loc 1 1614 3 is_stmt 1 view .LVU844
 3350              		.loc 1 1614 10 is_stmt 0 view .LVU845
 3351 0002 FFF7FEFF 		bl	uxQueueSpacesAvailable
 3352              	.LVL264:
1615:Middlewares/Third_Party/FreeRTOS/Source/CMSIS_RTOS/cmsis_os.c **** }
 3353              		.loc 1 1615 1 view .LVU846
 3354 0006 08BD     		pop	{r3, pc}
 3355              		.cfi_endproc
 3356              	.LFE99:
 3358              		.section	.text.osMessageDelete,"ax",%progbits
 3359              		.align	1
 3360              		.global	osMessageDelete
 3361              		.syntax unified
ARM GAS  C:\Users\LJH\AppData\Local\Temp\ccdyqIDU.s 			page 97


 3362              		.thumb
 3363              		.thumb_func
 3365              	osMessageDelete:
 3366              	.LVL265:
 3367              	.LFB100:
1616:Middlewares/Third_Party/FreeRTOS/Source/CMSIS_RTOS/cmsis_os.c **** 
1617:Middlewares/Third_Party/FreeRTOS/Source/CMSIS_RTOS/cmsis_os.c **** /**
1618:Middlewares/Third_Party/FreeRTOS/Source/CMSIS_RTOS/cmsis_os.c **** * @brief Delete a Message Queue
1619:Middlewares/Third_Party/FreeRTOS/Source/CMSIS_RTOS/cmsis_os.c **** * @param  queue_id  message queue ID obtained with \ref osMessageCreate.
1620:Middlewares/Third_Party/FreeRTOS/Source/CMSIS_RTOS/cmsis_os.c **** * @retval  status code that indicates the execution status of the function.
1621:Middlewares/Third_Party/FreeRTOS/Source/CMSIS_RTOS/cmsis_os.c **** */
1622:Middlewares/Third_Party/FreeRTOS/Source/CMSIS_RTOS/cmsis_os.c **** osStatus osMessageDelete (osMessageQId queue_id)
1623:Middlewares/Third_Party/FreeRTOS/Source/CMSIS_RTOS/cmsis_os.c **** {
 3368              		.loc 1 1623 1 is_stmt 1 view -0
 3369              		.cfi_startproc
 3370              		@ args = 0, pretend = 0, frame = 0
 3371              		@ frame_needed = 0, uses_anonymous_args = 0
 3372              		.loc 1 1623 1 is_stmt 0 view .LVU848
 3373 0000 10B5     		push	{r4, lr}
 3374              	.LCFI84:
 3375              		.cfi_def_cfa_offset 8
 3376              		.cfi_offset 4, -8
 3377              		.cfi_offset 14, -4
 3378 0002 0446     		mov	r4, r0
1624:Middlewares/Third_Party/FreeRTOS/Source/CMSIS_RTOS/cmsis_os.c ****   if (inHandlerMode()) {
 3379              		.loc 1 1624 3 is_stmt 1 view .LVU849
 3380              		.loc 1 1624 7 is_stmt 0 view .LVU850
 3381 0004 FFF7FEFF 		bl	inHandlerMode
 3382              	.LVL266:
 3383              		.loc 1 1624 6 view .LVU851
 3384 0008 20B9     		cbnz	r0, .L251
1625:Middlewares/Third_Party/FreeRTOS/Source/CMSIS_RTOS/cmsis_os.c ****     return osErrorISR;
1626:Middlewares/Third_Party/FreeRTOS/Source/CMSIS_RTOS/cmsis_os.c ****   }
1627:Middlewares/Third_Party/FreeRTOS/Source/CMSIS_RTOS/cmsis_os.c **** 
1628:Middlewares/Third_Party/FreeRTOS/Source/CMSIS_RTOS/cmsis_os.c ****   vQueueDelete(queue_id);
 3385              		.loc 1 1628 3 is_stmt 1 view .LVU852
 3386 000a 2046     		mov	r0, r4
 3387 000c FFF7FEFF 		bl	vQueueDelete
 3388              	.LVL267:
1629:Middlewares/Third_Party/FreeRTOS/Source/CMSIS_RTOS/cmsis_os.c **** 
1630:Middlewares/Third_Party/FreeRTOS/Source/CMSIS_RTOS/cmsis_os.c ****   return osOK; 
 3389              		.loc 1 1630 3 view .LVU853
 3390              		.loc 1 1630 10 is_stmt 0 view .LVU854
 3391 0010 0020     		movs	r0, #0
 3392              	.L249:
1631:Middlewares/Third_Party/FreeRTOS/Source/CMSIS_RTOS/cmsis_os.c **** }
 3393              		.loc 1 1631 1 view .LVU855
 3394 0012 10BD     		pop	{r4, pc}
 3395              	.LVL268:
 3396              	.L251:
1625:Middlewares/Third_Party/FreeRTOS/Source/CMSIS_RTOS/cmsis_os.c ****     return osErrorISR;
 3397              		.loc 1 1625 12 view .LVU856
 3398 0014 8220     		movs	r0, #130
 3399 0016 FCE7     		b	.L249
 3400              		.cfi_endproc
 3401              	.LFE100:
 3403              		.section	.text.osRecursiveMutexCreate,"ax",%progbits
ARM GAS  C:\Users\LJH\AppData\Local\Temp\ccdyqIDU.s 			page 98


 3404              		.align	1
 3405              		.global	osRecursiveMutexCreate
 3406              		.syntax unified
 3407              		.thumb
 3408              		.thumb_func
 3410              	osRecursiveMutexCreate:
 3411              	.LVL269:
 3412              	.LFB101:
1632:Middlewares/Third_Party/FreeRTOS/Source/CMSIS_RTOS/cmsis_os.c **** 
1633:Middlewares/Third_Party/FreeRTOS/Source/CMSIS_RTOS/cmsis_os.c **** /**
1634:Middlewares/Third_Party/FreeRTOS/Source/CMSIS_RTOS/cmsis_os.c **** * @brief  Create and Initialize a Recursive Mutex
1635:Middlewares/Third_Party/FreeRTOS/Source/CMSIS_RTOS/cmsis_os.c **** * @param  mutex_def     mutex definition referenced with \ref osMutex.
1636:Middlewares/Third_Party/FreeRTOS/Source/CMSIS_RTOS/cmsis_os.c **** * @retval  mutex ID for reference by other functions or NULL in case of error..
1637:Middlewares/Third_Party/FreeRTOS/Source/CMSIS_RTOS/cmsis_os.c **** */
1638:Middlewares/Third_Party/FreeRTOS/Source/CMSIS_RTOS/cmsis_os.c **** osMutexId osRecursiveMutexCreate (const osMutexDef_t *mutex_def)
1639:Middlewares/Third_Party/FreeRTOS/Source/CMSIS_RTOS/cmsis_os.c **** {
 3413              		.loc 1 1639 1 is_stmt 1 view -0
 3414              		.cfi_startproc
 3415              		@ args = 0, pretend = 0, frame = 0
 3416              		@ frame_needed = 0, uses_anonymous_args = 0
 3417              		@ link register save eliminated.
1640:Middlewares/Third_Party/FreeRTOS/Source/CMSIS_RTOS/cmsis_os.c **** #if (configUSE_RECURSIVE_MUTEXES == 1)
1641:Middlewares/Third_Party/FreeRTOS/Source/CMSIS_RTOS/cmsis_os.c **** #if( configSUPPORT_STATIC_ALLOCATION == 1 ) && ( configSUPPORT_DYNAMIC_ALLOCATION == 1 )
1642:Middlewares/Third_Party/FreeRTOS/Source/CMSIS_RTOS/cmsis_os.c **** 
1643:Middlewares/Third_Party/FreeRTOS/Source/CMSIS_RTOS/cmsis_os.c ****   if (mutex_def->controlblock != NULL){
1644:Middlewares/Third_Party/FreeRTOS/Source/CMSIS_RTOS/cmsis_os.c ****     return xSemaphoreCreateRecursiveMutexStatic( mutex_def->controlblock );
1645:Middlewares/Third_Party/FreeRTOS/Source/CMSIS_RTOS/cmsis_os.c ****   }
1646:Middlewares/Third_Party/FreeRTOS/Source/CMSIS_RTOS/cmsis_os.c ****   else {
1647:Middlewares/Third_Party/FreeRTOS/Source/CMSIS_RTOS/cmsis_os.c ****     return xSemaphoreCreateRecursiveMutex();
1648:Middlewares/Third_Party/FreeRTOS/Source/CMSIS_RTOS/cmsis_os.c ****   }
1649:Middlewares/Third_Party/FreeRTOS/Source/CMSIS_RTOS/cmsis_os.c **** #elif ( configSUPPORT_STATIC_ALLOCATION == 1 )
1650:Middlewares/Third_Party/FreeRTOS/Source/CMSIS_RTOS/cmsis_os.c ****   return xSemaphoreCreateRecursiveMutexStatic( mutex_def->controlblock );
1651:Middlewares/Third_Party/FreeRTOS/Source/CMSIS_RTOS/cmsis_os.c **** #else 
1652:Middlewares/Third_Party/FreeRTOS/Source/CMSIS_RTOS/cmsis_os.c ****   return xSemaphoreCreateRecursiveMutex();
1653:Middlewares/Third_Party/FreeRTOS/Source/CMSIS_RTOS/cmsis_os.c **** #endif
1654:Middlewares/Third_Party/FreeRTOS/Source/CMSIS_RTOS/cmsis_os.c **** #else
1655:Middlewares/Third_Party/FreeRTOS/Source/CMSIS_RTOS/cmsis_os.c ****   return NULL;
 3418              		.loc 1 1655 3 view .LVU858
1656:Middlewares/Third_Party/FreeRTOS/Source/CMSIS_RTOS/cmsis_os.c **** #endif	
1657:Middlewares/Third_Party/FreeRTOS/Source/CMSIS_RTOS/cmsis_os.c **** }
 3419              		.loc 1 1657 1 is_stmt 0 view .LVU859
 3420 0000 0020     		movs	r0, #0
 3421              	.LVL270:
 3422              		.loc 1 1657 1 view .LVU860
 3423 0002 7047     		bx	lr
 3424              		.cfi_endproc
 3425              	.LFE101:
 3427              		.section	.text.osRecursiveMutexRelease,"ax",%progbits
 3428              		.align	1
 3429              		.global	osRecursiveMutexRelease
 3430              		.syntax unified
 3431              		.thumb
 3432              		.thumb_func
 3434              	osRecursiveMutexRelease:
 3435              	.LVL271:
 3436              	.LFB102:
1658:Middlewares/Third_Party/FreeRTOS/Source/CMSIS_RTOS/cmsis_os.c **** 
ARM GAS  C:\Users\LJH\AppData\Local\Temp\ccdyqIDU.s 			page 99


1659:Middlewares/Third_Party/FreeRTOS/Source/CMSIS_RTOS/cmsis_os.c **** /**
1660:Middlewares/Third_Party/FreeRTOS/Source/CMSIS_RTOS/cmsis_os.c **** * @brief  Release a Recursive Mutex
1661:Middlewares/Third_Party/FreeRTOS/Source/CMSIS_RTOS/cmsis_os.c **** * @param   mutex_id      mutex ID obtained by \ref osRecursiveMutexCreate.
1662:Middlewares/Third_Party/FreeRTOS/Source/CMSIS_RTOS/cmsis_os.c **** * @retval  status code that indicates the execution status of the function.
1663:Middlewares/Third_Party/FreeRTOS/Source/CMSIS_RTOS/cmsis_os.c **** */
1664:Middlewares/Third_Party/FreeRTOS/Source/CMSIS_RTOS/cmsis_os.c **** osStatus osRecursiveMutexRelease (osMutexId mutex_id)
1665:Middlewares/Third_Party/FreeRTOS/Source/CMSIS_RTOS/cmsis_os.c **** {
 3437              		.loc 1 1665 1 is_stmt 1 view -0
 3438              		.cfi_startproc
 3439              		@ args = 0, pretend = 0, frame = 0
 3440              		@ frame_needed = 0, uses_anonymous_args = 0
 3441              		@ link register save eliminated.
1666:Middlewares/Third_Party/FreeRTOS/Source/CMSIS_RTOS/cmsis_os.c **** #if (configUSE_RECURSIVE_MUTEXES == 1)
1667:Middlewares/Third_Party/FreeRTOS/Source/CMSIS_RTOS/cmsis_os.c ****   osStatus result = osOK;
1668:Middlewares/Third_Party/FreeRTOS/Source/CMSIS_RTOS/cmsis_os.c ****  
1669:Middlewares/Third_Party/FreeRTOS/Source/CMSIS_RTOS/cmsis_os.c ****   if (xSemaphoreGiveRecursive(mutex_id) != pdTRUE) 
1670:Middlewares/Third_Party/FreeRTOS/Source/CMSIS_RTOS/cmsis_os.c ****   {
1671:Middlewares/Third_Party/FreeRTOS/Source/CMSIS_RTOS/cmsis_os.c ****     result = osErrorOS;
1672:Middlewares/Third_Party/FreeRTOS/Source/CMSIS_RTOS/cmsis_os.c ****   }
1673:Middlewares/Third_Party/FreeRTOS/Source/CMSIS_RTOS/cmsis_os.c ****   return result;
1674:Middlewares/Third_Party/FreeRTOS/Source/CMSIS_RTOS/cmsis_os.c **** #else
1675:Middlewares/Third_Party/FreeRTOS/Source/CMSIS_RTOS/cmsis_os.c **** 	return osErrorResource;
 3442              		.loc 1 1675 2 view .LVU862
1676:Middlewares/Third_Party/FreeRTOS/Source/CMSIS_RTOS/cmsis_os.c **** #endif
1677:Middlewares/Third_Party/FreeRTOS/Source/CMSIS_RTOS/cmsis_os.c **** }
 3443              		.loc 1 1677 1 is_stmt 0 view .LVU863
 3444 0000 8120     		movs	r0, #129
 3445              	.LVL272:
 3446              		.loc 1 1677 1 view .LVU864
 3447 0002 7047     		bx	lr
 3448              		.cfi_endproc
 3449              	.LFE102:
 3451              		.section	.text.osRecursiveMutexWait,"ax",%progbits
 3452              		.align	1
 3453              		.global	osRecursiveMutexWait
 3454              		.syntax unified
 3455              		.thumb
 3456              		.thumb_func
 3458              	osRecursiveMutexWait:
 3459              	.LVL273:
 3460              	.LFB103:
1678:Middlewares/Third_Party/FreeRTOS/Source/CMSIS_RTOS/cmsis_os.c **** 
1679:Middlewares/Third_Party/FreeRTOS/Source/CMSIS_RTOS/cmsis_os.c **** /**
1680:Middlewares/Third_Party/FreeRTOS/Source/CMSIS_RTOS/cmsis_os.c **** * @brief  Release a Recursive Mutex
1681:Middlewares/Third_Party/FreeRTOS/Source/CMSIS_RTOS/cmsis_os.c **** * @param   mutex_id    mutex ID obtained by \ref osRecursiveMutexCreate.
1682:Middlewares/Third_Party/FreeRTOS/Source/CMSIS_RTOS/cmsis_os.c **** * @param millisec      timeout value or 0 in case of no time-out.
1683:Middlewares/Third_Party/FreeRTOS/Source/CMSIS_RTOS/cmsis_os.c **** * @retval  status code that indicates the execution status of the function.
1684:Middlewares/Third_Party/FreeRTOS/Source/CMSIS_RTOS/cmsis_os.c **** */
1685:Middlewares/Third_Party/FreeRTOS/Source/CMSIS_RTOS/cmsis_os.c **** osStatus osRecursiveMutexWait (osMutexId mutex_id, uint32_t millisec)
1686:Middlewares/Third_Party/FreeRTOS/Source/CMSIS_RTOS/cmsis_os.c **** {
 3461              		.loc 1 1686 1 is_stmt 1 view -0
 3462              		.cfi_startproc
 3463              		@ args = 0, pretend = 0, frame = 0
 3464              		@ frame_needed = 0, uses_anonymous_args = 0
 3465              		@ link register save eliminated.
1687:Middlewares/Third_Party/FreeRTOS/Source/CMSIS_RTOS/cmsis_os.c **** #if (configUSE_RECURSIVE_MUTEXES == 1)
1688:Middlewares/Third_Party/FreeRTOS/Source/CMSIS_RTOS/cmsis_os.c ****   TickType_t ticks;
ARM GAS  C:\Users\LJH\AppData\Local\Temp\ccdyqIDU.s 			page 100


1689:Middlewares/Third_Party/FreeRTOS/Source/CMSIS_RTOS/cmsis_os.c ****   
1690:Middlewares/Third_Party/FreeRTOS/Source/CMSIS_RTOS/cmsis_os.c ****   if (mutex_id == NULL)
1691:Middlewares/Third_Party/FreeRTOS/Source/CMSIS_RTOS/cmsis_os.c ****   {
1692:Middlewares/Third_Party/FreeRTOS/Source/CMSIS_RTOS/cmsis_os.c ****     return osErrorParameter;
1693:Middlewares/Third_Party/FreeRTOS/Source/CMSIS_RTOS/cmsis_os.c ****   }
1694:Middlewares/Third_Party/FreeRTOS/Source/CMSIS_RTOS/cmsis_os.c ****   
1695:Middlewares/Third_Party/FreeRTOS/Source/CMSIS_RTOS/cmsis_os.c ****   ticks = 0;
1696:Middlewares/Third_Party/FreeRTOS/Source/CMSIS_RTOS/cmsis_os.c ****   if (millisec == osWaitForever) 
1697:Middlewares/Third_Party/FreeRTOS/Source/CMSIS_RTOS/cmsis_os.c ****   {
1698:Middlewares/Third_Party/FreeRTOS/Source/CMSIS_RTOS/cmsis_os.c ****     ticks = portMAX_DELAY;
1699:Middlewares/Third_Party/FreeRTOS/Source/CMSIS_RTOS/cmsis_os.c ****   }
1700:Middlewares/Third_Party/FreeRTOS/Source/CMSIS_RTOS/cmsis_os.c ****   else if (millisec != 0) 
1701:Middlewares/Third_Party/FreeRTOS/Source/CMSIS_RTOS/cmsis_os.c ****   {
1702:Middlewares/Third_Party/FreeRTOS/Source/CMSIS_RTOS/cmsis_os.c ****     ticks = millisec / portTICK_PERIOD_MS;
1703:Middlewares/Third_Party/FreeRTOS/Source/CMSIS_RTOS/cmsis_os.c ****     if (ticks == 0) 
1704:Middlewares/Third_Party/FreeRTOS/Source/CMSIS_RTOS/cmsis_os.c ****     {
1705:Middlewares/Third_Party/FreeRTOS/Source/CMSIS_RTOS/cmsis_os.c ****       ticks = 1;
1706:Middlewares/Third_Party/FreeRTOS/Source/CMSIS_RTOS/cmsis_os.c ****     }
1707:Middlewares/Third_Party/FreeRTOS/Source/CMSIS_RTOS/cmsis_os.c ****   }
1708:Middlewares/Third_Party/FreeRTOS/Source/CMSIS_RTOS/cmsis_os.c ****   
1709:Middlewares/Third_Party/FreeRTOS/Source/CMSIS_RTOS/cmsis_os.c ****   if (xSemaphoreTakeRecursive(mutex_id, ticks) != pdTRUE) 
1710:Middlewares/Third_Party/FreeRTOS/Source/CMSIS_RTOS/cmsis_os.c ****   {
1711:Middlewares/Third_Party/FreeRTOS/Source/CMSIS_RTOS/cmsis_os.c ****     return osErrorOS;
1712:Middlewares/Third_Party/FreeRTOS/Source/CMSIS_RTOS/cmsis_os.c ****   }
1713:Middlewares/Third_Party/FreeRTOS/Source/CMSIS_RTOS/cmsis_os.c ****   return osOK;
1714:Middlewares/Third_Party/FreeRTOS/Source/CMSIS_RTOS/cmsis_os.c **** #else
1715:Middlewares/Third_Party/FreeRTOS/Source/CMSIS_RTOS/cmsis_os.c **** 	return osErrorResource;
 3466              		.loc 1 1715 2 view .LVU866
1716:Middlewares/Third_Party/FreeRTOS/Source/CMSIS_RTOS/cmsis_os.c **** #endif
1717:Middlewares/Third_Party/FreeRTOS/Source/CMSIS_RTOS/cmsis_os.c **** }
 3467              		.loc 1 1717 1 is_stmt 0 view .LVU867
 3468 0000 8120     		movs	r0, #129
 3469              	.LVL274:
 3470              		.loc 1 1717 1 view .LVU868
 3471 0002 7047     		bx	lr
 3472              		.cfi_endproc
 3473              	.LFE103:
 3475              		.section	.text.osSemaphoreGetCount,"ax",%progbits
 3476              		.align	1
 3477              		.global	osSemaphoreGetCount
 3478              		.syntax unified
 3479              		.thumb
 3480              		.thumb_func
 3482              	osSemaphoreGetCount:
 3483              	.LVL275:
 3484              	.LFB104:
1718:Middlewares/Third_Party/FreeRTOS/Source/CMSIS_RTOS/cmsis_os.c **** 
1719:Middlewares/Third_Party/FreeRTOS/Source/CMSIS_RTOS/cmsis_os.c **** /**
1720:Middlewares/Third_Party/FreeRTOS/Source/CMSIS_RTOS/cmsis_os.c **** * @brief  Returns the current count value of a counting semaphore
1721:Middlewares/Third_Party/FreeRTOS/Source/CMSIS_RTOS/cmsis_os.c **** * @param  semaphore_id  semaphore_id ID obtained by \ref osSemaphoreCreate.
1722:Middlewares/Third_Party/FreeRTOS/Source/CMSIS_RTOS/cmsis_os.c **** * @retval  count value
1723:Middlewares/Third_Party/FreeRTOS/Source/CMSIS_RTOS/cmsis_os.c **** */
1724:Middlewares/Third_Party/FreeRTOS/Source/CMSIS_RTOS/cmsis_os.c **** uint32_t osSemaphoreGetCount(osSemaphoreId semaphore_id)
1725:Middlewares/Third_Party/FreeRTOS/Source/CMSIS_RTOS/cmsis_os.c **** {
 3485              		.loc 1 1725 1 is_stmt 1 view -0
 3486              		.cfi_startproc
 3487              		@ args = 0, pretend = 0, frame = 0
ARM GAS  C:\Users\LJH\AppData\Local\Temp\ccdyqIDU.s 			page 101


 3488              		@ frame_needed = 0, uses_anonymous_args = 0
 3489              		.loc 1 1725 1 is_stmt 0 view .LVU870
 3490 0000 08B5     		push	{r3, lr}
 3491              	.LCFI85:
 3492              		.cfi_def_cfa_offset 8
 3493              		.cfi_offset 3, -8
 3494              		.cfi_offset 14, -4
1726:Middlewares/Third_Party/FreeRTOS/Source/CMSIS_RTOS/cmsis_os.c ****   return uxSemaphoreGetCount(semaphore_id);
 3495              		.loc 1 1726 3 is_stmt 1 view .LVU871
 3496              		.loc 1 1726 10 is_stmt 0 view .LVU872
 3497 0002 FFF7FEFF 		bl	uxQueueMessagesWaiting
 3498              	.LVL276:
1727:Middlewares/Third_Party/FreeRTOS/Source/CMSIS_RTOS/cmsis_os.c **** }
 3499              		.loc 1 1727 1 view .LVU873
 3500 0006 08BD     		pop	{r3, pc}
 3501              		.cfi_endproc
 3502              	.LFE104:
 3504              		.text
 3505              	.Letext0:
 3506              		.file 4 "c:\\program files (x86)\\gnu arm embedded toolchain\\10 2021.10\\arm-none-eabi\\include\\
 3507              		.file 5 "c:\\program files (x86)\\gnu arm embedded toolchain\\10 2021.10\\arm-none-eabi\\include\\
 3508              		.file 6 "Middlewares/Third_Party/FreeRTOS/Source/include/projdefs.h"
 3509              		.file 7 "Middlewares/Third_Party/FreeRTOS/Source/include/FreeRTOS.h"
 3510              		.file 8 "Middlewares/Third_Party/FreeRTOS/Source/include/task.h"
 3511              		.file 9 "Middlewares/Third_Party/FreeRTOS/Source/include/timers.h"
 3512              		.file 10 "Middlewares/Third_Party/FreeRTOS/Source/include/queue.h"
 3513              		.file 11 "Middlewares/Third_Party/FreeRTOS/Source/include/semphr.h"
 3514              		.file 12 "Middlewares/Third_Party/FreeRTOS/Source/CMSIS_RTOS/cmsis_os.h"
 3515              		.file 13 "Middlewares/Third_Party/FreeRTOS/Source/include/portable.h"
ARM GAS  C:\Users\LJH\AppData\Local\Temp\ccdyqIDU.s 			page 102


DEFINED SYMBOLS
                            *ABS*:00000000 cmsis_os.c
C:\Users\LJH\AppData\Local\Temp\ccdyqIDU.s:18     .text.makeFreeRtosPriority:00000000 $t
C:\Users\LJH\AppData\Local\Temp\ccdyqIDU.s:23     .text.makeFreeRtosPriority:00000000 makeFreeRtosPriority
C:\Users\LJH\AppData\Local\Temp\ccdyqIDU.s:55     .text.makeCmsisPriority:00000000 $t
C:\Users\LJH\AppData\Local\Temp\ccdyqIDU.s:60     .text.makeCmsisPriority:00000000 makeCmsisPriority
C:\Users\LJH\AppData\Local\Temp\ccdyqIDU.s:94     .text.inHandlerMode:00000000 $t
C:\Users\LJH\AppData\Local\Temp\ccdyqIDU.s:99     .text.inHandlerMode:00000000 inHandlerMode
C:\Users\LJH\AppData\Local\Temp\ccdyqIDU.s:134    .text.osKernelStart:00000000 $t
C:\Users\LJH\AppData\Local\Temp\ccdyqIDU.s:140    .text.osKernelStart:00000000 osKernelStart
C:\Users\LJH\AppData\Local\Temp\ccdyqIDU.s:162    .text.osKernelRunning:00000000 $t
C:\Users\LJH\AppData\Local\Temp\ccdyqIDU.s:168    .text.osKernelRunning:00000000 osKernelRunning
C:\Users\LJH\AppData\Local\Temp\ccdyqIDU.s:199    .text.osKernelSysTick:00000000 $t
C:\Users\LJH\AppData\Local\Temp\ccdyqIDU.s:205    .text.osKernelSysTick:00000000 osKernelSysTick
C:\Users\LJH\AppData\Local\Temp\ccdyqIDU.s:239    .text.osThreadCreate:00000000 $t
C:\Users\LJH\AppData\Local\Temp\ccdyqIDU.s:245    .text.osThreadCreate:00000000 osThreadCreate
C:\Users\LJH\AppData\Local\Temp\ccdyqIDU.s:350    .text.osThreadGetId:00000000 $t
C:\Users\LJH\AppData\Local\Temp\ccdyqIDU.s:356    .text.osThreadGetId:00000000 osThreadGetId
C:\Users\LJH\AppData\Local\Temp\ccdyqIDU.s:377    .text.osThreadTerminate:00000000 $t
C:\Users\LJH\AppData\Local\Temp\ccdyqIDU.s:383    .text.osThreadTerminate:00000000 osThreadTerminate
C:\Users\LJH\AppData\Local\Temp\ccdyqIDU.s:407    .text.osThreadYield:00000000 $t
C:\Users\LJH\AppData\Local\Temp\ccdyqIDU.s:413    .text.osThreadYield:00000000 osThreadYield
C:\Users\LJH\AppData\Local\Temp\ccdyqIDU.s:444    .text.osThreadSetPriority:00000000 $t
C:\Users\LJH\AppData\Local\Temp\ccdyqIDU.s:450    .text.osThreadSetPriority:00000000 osThreadSetPriority
C:\Users\LJH\AppData\Local\Temp\ccdyqIDU.s:484    .text.osThreadGetPriority:00000000 $t
C:\Users\LJH\AppData\Local\Temp\ccdyqIDU.s:490    .text.osThreadGetPriority:00000000 osThreadGetPriority
C:\Users\LJH\AppData\Local\Temp\ccdyqIDU.s:534    .text.osDelay:00000000 $t
C:\Users\LJH\AppData\Local\Temp\ccdyqIDU.s:540    .text.osDelay:00000000 osDelay
C:\Users\LJH\AppData\Local\Temp\ccdyqIDU.s:571    .text.osTimerCreate:00000000 $t
C:\Users\LJH\AppData\Local\Temp\ccdyqIDU.s:577    .text.osTimerCreate:00000000 osTimerCreate
C:\Users\LJH\AppData\Local\Temp\ccdyqIDU.s:595    .text.osTimerStart:00000000 $t
C:\Users\LJH\AppData\Local\Temp\ccdyqIDU.s:601    .text.osTimerStart:00000000 osTimerStart
C:\Users\LJH\AppData\Local\Temp\ccdyqIDU.s:621    .text.osTimerStop:00000000 $t
C:\Users\LJH\AppData\Local\Temp\ccdyqIDU.s:627    .text.osTimerStop:00000000 osTimerStop
C:\Users\LJH\AppData\Local\Temp\ccdyqIDU.s:647    .text.osTimerDelete:00000000 $t
C:\Users\LJH\AppData\Local\Temp\ccdyqIDU.s:653    .text.osTimerDelete:00000000 osTimerDelete
C:\Users\LJH\AppData\Local\Temp\ccdyqIDU.s:673    .text.osSignalSet:00000000 $t
C:\Users\LJH\AppData\Local\Temp\ccdyqIDU.s:679    .text.osSignalSet:00000000 osSignalSet
C:\Users\LJH\AppData\Local\Temp\ccdyqIDU.s:782    .text.osSignalWait:00000000 $t
C:\Users\LJH\AppData\Local\Temp\ccdyqIDU.s:788    .text.osSignalWait:00000000 osSignalWait
C:\Users\LJH\AppData\Local\Temp\ccdyqIDU.s:893    .text.osMutexCreate:00000000 $t
C:\Users\LJH\AppData\Local\Temp\ccdyqIDU.s:899    .text.osMutexCreate:00000000 osMutexCreate
C:\Users\LJH\AppData\Local\Temp\ccdyqIDU.s:941    .text.osMutexWait:00000000 $t
C:\Users\LJH\AppData\Local\Temp\ccdyqIDU.s:947    .text.osMutexWait:00000000 osMutexWait
C:\Users\LJH\AppData\Local\Temp\ccdyqIDU.s:1061   .text.osMutexRelease:00000000 $t
C:\Users\LJH\AppData\Local\Temp\ccdyqIDU.s:1067   .text.osMutexRelease:00000000 osMutexRelease
C:\Users\LJH\AppData\Local\Temp\ccdyqIDU.s:1168   .text.osMutexDelete:00000000 $t
C:\Users\LJH\AppData\Local\Temp\ccdyqIDU.s:1174   .text.osMutexDelete:00000000 osMutexDelete
C:\Users\LJH\AppData\Local\Temp\ccdyqIDU.s:1213   .text.osSemaphoreCreate:00000000 $t
C:\Users\LJH\AppData\Local\Temp\ccdyqIDU.s:1219   .text.osSemaphoreCreate:00000000 osSemaphoreCreate
C:\Users\LJH\AppData\Local\Temp\ccdyqIDU.s:1311   .text.osSemaphoreWait:00000000 $t
C:\Users\LJH\AppData\Local\Temp\ccdyqIDU.s:1317   .text.osSemaphoreWait:00000000 osSemaphoreWait
C:\Users\LJH\AppData\Local\Temp\ccdyqIDU.s:1426   .text.osSemaphoreRelease:00000000 $t
C:\Users\LJH\AppData\Local\Temp\ccdyqIDU.s:1432   .text.osSemaphoreRelease:00000000 osSemaphoreRelease
C:\Users\LJH\AppData\Local\Temp\ccdyqIDU.s:1533   .text.osSemaphoreDelete:00000000 $t
C:\Users\LJH\AppData\Local\Temp\ccdyqIDU.s:1539   .text.osSemaphoreDelete:00000000 osSemaphoreDelete
C:\Users\LJH\AppData\Local\Temp\ccdyqIDU.s:1578   .text.osPoolCreate:00000000 $t
ARM GAS  C:\Users\LJH\AppData\Local\Temp\ccdyqIDU.s 			page 103


C:\Users\LJH\AppData\Local\Temp\ccdyqIDU.s:1584   .text.osPoolCreate:00000000 osPoolCreate
C:\Users\LJH\AppData\Local\Temp\ccdyqIDU.s:1720   .text.osPoolAlloc:00000000 $t
C:\Users\LJH\AppData\Local\Temp\ccdyqIDU.s:1726   .text.osPoolAlloc:00000000 osPoolAlloc
C:\Users\LJH\AppData\Local\Temp\ccdyqIDU.s:1884   .text.osPoolCAlloc:00000000 $t
C:\Users\LJH\AppData\Local\Temp\ccdyqIDU.s:1890   .text.osPoolCAlloc:00000000 osPoolCAlloc
C:\Users\LJH\AppData\Local\Temp\ccdyqIDU.s:1921   .text.osPoolFree:00000000 $t
C:\Users\LJH\AppData\Local\Temp\ccdyqIDU.s:1927   .text.osPoolFree:00000000 osPoolFree
C:\Users\LJH\AppData\Local\Temp\ccdyqIDU.s:2018   .text.osMessageCreate:00000000 $t
C:\Users\LJH\AppData\Local\Temp\ccdyqIDU.s:2024   .text.osMessageCreate:00000000 osMessageCreate
C:\Users\LJH\AppData\Local\Temp\ccdyqIDU.s:2086   .text.osMessagePut:00000000 $t
C:\Users\LJH\AppData\Local\Temp\ccdyqIDU.s:2092   .text.osMessagePut:00000000 osMessagePut
C:\Users\LJH\AppData\Local\Temp\ccdyqIDU.s:2205   .text.osMessageGet:00000000 $t
C:\Users\LJH\AppData\Local\Temp\ccdyqIDU.s:2211   .text.osMessageGet:00000000 osMessageGet
C:\Users\LJH\AppData\Local\Temp\ccdyqIDU.s:2361   .text.osMailCreate:00000000 $t
C:\Users\LJH\AppData\Local\Temp\ccdyqIDU.s:2367   .text.osMailCreate:00000000 osMailCreate
C:\Users\LJH\AppData\Local\Temp\ccdyqIDU.s:2492   .text.osMailAlloc:00000000 $t
C:\Users\LJH\AppData\Local\Temp\ccdyqIDU.s:2498   .text.osMailAlloc:00000000 osMailAlloc
C:\Users\LJH\AppData\Local\Temp\ccdyqIDU.s:2531   .text.osMailCAlloc:00000000 $t
C:\Users\LJH\AppData\Local\Temp\ccdyqIDU.s:2537   .text.osMailCAlloc:00000000 osMailCAlloc
C:\Users\LJH\AppData\Local\Temp\ccdyqIDU.s:2594   .text.osMailPut:00000000 $t
C:\Users\LJH\AppData\Local\Temp\ccdyqIDU.s:2600   .text.osMailPut:00000000 osMailPut
C:\Users\LJH\AppData\Local\Temp\ccdyqIDU.s:2713   .text.osMailGet:00000000 $t
C:\Users\LJH\AppData\Local\Temp\ccdyqIDU.s:2719   .text.osMailGet:00000000 osMailGet
C:\Users\LJH\AppData\Local\Temp\ccdyqIDU.s:2865   .text.osMailFree:00000000 $t
C:\Users\LJH\AppData\Local\Temp\ccdyqIDU.s:2871   .text.osMailFree:00000000 osMailFree
C:\Users\LJH\AppData\Local\Temp\ccdyqIDU.s:2911   .text.osSystickHandler:00000000 $t
C:\Users\LJH\AppData\Local\Temp\ccdyqIDU.s:2917   .text.osSystickHandler:00000000 osSystickHandler
C:\Users\LJH\AppData\Local\Temp\ccdyqIDU.s:2948   .text.osThreadSuspend:00000000 $t
C:\Users\LJH\AppData\Local\Temp\ccdyqIDU.s:2954   .text.osThreadSuspend:00000000 osThreadSuspend
C:\Users\LJH\AppData\Local\Temp\ccdyqIDU.s:2978   .text.osThreadResume:00000000 $t
C:\Users\LJH\AppData\Local\Temp\ccdyqIDU.s:2984   .text.osThreadResume:00000000 osThreadResume
C:\Users\LJH\AppData\Local\Temp\ccdyqIDU.s:3044   .text.osThreadSuspendAll:00000000 $t
C:\Users\LJH\AppData\Local\Temp\ccdyqIDU.s:3050   .text.osThreadSuspendAll:00000000 osThreadSuspendAll
C:\Users\LJH\AppData\Local\Temp\ccdyqIDU.s:3072   .text.osThreadResumeAll:00000000 $t
C:\Users\LJH\AppData\Local\Temp\ccdyqIDU.s:3078   .text.osThreadResumeAll:00000000 osThreadResumeAll
C:\Users\LJH\AppData\Local\Temp\ccdyqIDU.s:3109   .text.osDelayUntil:00000000 $t
C:\Users\LJH\AppData\Local\Temp\ccdyqIDU.s:3115   .text.osDelayUntil:00000000 osDelayUntil
C:\Users\LJH\AppData\Local\Temp\ccdyqIDU.s:3135   .text.osAbortDelay:00000000 $t
C:\Users\LJH\AppData\Local\Temp\ccdyqIDU.s:3141   .text.osAbortDelay:00000000 osAbortDelay
C:\Users\LJH\AppData\Local\Temp\ccdyqIDU.s:3160   .text.osThreadList:00000000 $t
C:\Users\LJH\AppData\Local\Temp\ccdyqIDU.s:3166   .text.osThreadList:00000000 osThreadList
C:\Users\LJH\AppData\Local\Temp\ccdyqIDU.s:3184   .text.osMessagePeek:00000000 $t
C:\Users\LJH\AppData\Local\Temp\ccdyqIDU.s:3190   .text.osMessagePeek:00000000 osMessagePeek
C:\Users\LJH\AppData\Local\Temp\ccdyqIDU.s:3284   .text.osMessageWaiting:00000000 $t
C:\Users\LJH\AppData\Local\Temp\ccdyqIDU.s:3290   .text.osMessageWaiting:00000000 osMessageWaiting
C:\Users\LJH\AppData\Local\Temp\ccdyqIDU.s:3330   .text.osMessageAvailableSpace:00000000 $t
C:\Users\LJH\AppData\Local\Temp\ccdyqIDU.s:3336   .text.osMessageAvailableSpace:00000000 osMessageAvailableSpace
C:\Users\LJH\AppData\Local\Temp\ccdyqIDU.s:3359   .text.osMessageDelete:00000000 $t
C:\Users\LJH\AppData\Local\Temp\ccdyqIDU.s:3365   .text.osMessageDelete:00000000 osMessageDelete
C:\Users\LJH\AppData\Local\Temp\ccdyqIDU.s:3404   .text.osRecursiveMutexCreate:00000000 $t
C:\Users\LJH\AppData\Local\Temp\ccdyqIDU.s:3410   .text.osRecursiveMutexCreate:00000000 osRecursiveMutexCreate
C:\Users\LJH\AppData\Local\Temp\ccdyqIDU.s:3428   .text.osRecursiveMutexRelease:00000000 $t
C:\Users\LJH\AppData\Local\Temp\ccdyqIDU.s:3434   .text.osRecursiveMutexRelease:00000000 osRecursiveMutexRelease
C:\Users\LJH\AppData\Local\Temp\ccdyqIDU.s:3452   .text.osRecursiveMutexWait:00000000 $t
C:\Users\LJH\AppData\Local\Temp\ccdyqIDU.s:3458   .text.osRecursiveMutexWait:00000000 osRecursiveMutexWait
C:\Users\LJH\AppData\Local\Temp\ccdyqIDU.s:3476   .text.osSemaphoreGetCount:00000000 $t
C:\Users\LJH\AppData\Local\Temp\ccdyqIDU.s:3482   .text.osSemaphoreGetCount:00000000 osSemaphoreGetCount
ARM GAS  C:\Users\LJH\AppData\Local\Temp\ccdyqIDU.s 			page 104



UNDEFINED SYMBOLS
vTaskStartScheduler
xTaskGetSchedulerState
xTaskGetTickCountFromISR
xTaskGetTickCount
xTaskCreateStatic
xTaskCreate
xTaskGetCurrentTaskHandle
vTaskDelete
vTaskPrioritySet
uxTaskPriorityGetFromISR
uxTaskPriorityGet
vTaskDelay
xTaskGenericNotifyFromISR
xTaskGenericNotify
xTaskNotifyWait
xQueueCreateMutexStatic
xQueueCreateMutex
xQueueReceiveFromISR
xQueueSemaphoreTake
xQueueGiveFromISR
xQueueGenericSend
vQueueDelete
xQueueGenericCreateStatic
xQueueGenericCreate
pvPortMalloc
vPortFree
vPortEnterCritical
vPortExitCritical
xQueueGenericSendFromISR
xQueueReceive
SysTick_Handler
vTaskSuspend
xTaskResumeFromISR
vTaskResume
vTaskSuspendAll
xTaskResumeAll
xQueuePeek
uxQueueMessagesWaitingFromISR
uxQueueMessagesWaiting
uxQueueSpacesAvailable
